((dp0
S'arm_dbg_args'
p1
S'-via:"c:\\Users\\Daniel\\Documents\\DrawSprite_Iw2D\\DrawSprite_Iw2D\\build_drawsprite_iw2d_vc9\\DrawSprite_Iw2D_vc9_arm_debug.via" -qemu'
p2
sS'game-icf'
p3
S''
p4
sS'dist'
p5
NsS'module_path_append'
p6
NsS'global_path'
p7
S'c:\\users\\daniel\\documents\\drawsprite_iw2d'
p8
sS'system_path'
p9
S'c:\\marmalade\\6.2\\s3e\\makefile_builder'
p10
sS'use_prebuilt'
p11
NsS'arm_rel_rtsm_args'
p12
S'-via:"c:\\Users\\Daniel\\Documents\\DrawSprite_Iw2D\\DrawSprite_Iw2D\\build_drawsprite_iw2d_vc9\\DrawSprite_Iw2D_vc9_arm_release.via" -qemu'
p13
sS'amd64'
p14
NsS'debug'
p15
NsS'line-width'
p16
I80
sS'gcc_dbg_args'
p17
S'-via:"c:\\Users\\Daniel\\Documents\\DrawSprite_Iw2D\\DrawSprite_Iw2D\\build_drawsprite_iw2d_vc9\\DrawSprite_Iw2D_vc9_gcc_debug.via" -qemu'
p18
sS'x86_dbg_exe'
p19
S'c:/marmalade/6.2/s3e\\win32\\s3e_simulator_debug.exe'
p20
sS'disable-runtime-checks'
p21
NsS'no-make'
p22
NsS'optimise-size'
p23
NsS'output-name-debug'
p24
g4
sS'arm-fpu'
p25
S'vfp'
p26
sS'psp'
p27
NsS'proj_name'
p28
S'DrawSprite_Iw2D_vc9'
p29
sS'rvct-version'
p30
S'none'
p31
sS'compiler'
p32
g4
sS'execute'
p33
NsS'compile-static'
p34
NsS'msvc-project'
p35
NsS'buildenv'
p36
g4
sS'release'
p37
NsS'module_path'
p38
NsS'use-release-std-libs'
p39
NsS'using_perforce'
p40
I00
sS'mips-s3e'
p41
NsS'shared-arm-lib'
p42
NsS'arm-cpu'
p43
g4
sS'compile-thumb'
p44
NsS'no-ide'
p45
NsS'msvc-version'
p46
S'6.0'
p47
sS'arm'
p48
NsS'builddir'
p49
g4
sS'compile-debug-as-release'
p50
I0
sS'brief'
p51
NsS'dll'
p52
NsS'version'
p53
NsS'ccache'
p54
I0
sS'offline'
p55
NsS'ios-version'
p56
g4
sS'jobs'
p57
I0
sS'linkflags'
p58
NsS'quick'
p59
NsS'gcc_rel_rtsm_args'
p60
S'-via:"c:\\Users\\Daniel\\Documents\\DrawSprite_Iw2D\\DrawSprite_Iw2D\\build_drawsprite_iw2d_vc9\\DrawSprite_Iw2D_vc9_gcc_release.via" -qemu'
p61
sS'done_defaults'
p62
I1
sS'path'
p63
NsS's3e-data-dir'
p64
S'c:/Users/Daniel/Documents/DrawSprite_Iw2D/DrawSprite_Iw2D\\data'
p65
sS'enable-exceptions'
p66
NsS'osx-dll'
p67
NsS'extension'
p68
g4
sS'no-vc6'
p69
NsS'non-interactive'
p70
NsS'win32-console'
p71
NsS'nds'
p72
NsS'dist-format'
p73
g4
sS's3e-force-arch'
p74
NsS'dump_defines'
p75
NsS'verbose'
p76
I0
sS'psp-minis'
p77
NsS'gcc-version'
p78
g4
sS'x86_dbg_args'
p79
S'-via:"c:\\Users\\Daniel\\Documents\\DrawSprite_Iw2D\\DrawSprite_Iw2D\\build_drawsprite_iw2d_vc9\\DrawSprite_Iw2D_vc9_debug.via"'
p80
sS'arm-debugger'
p81
g4
sS'use_temp_extension'
p82
NsS'log'
p83
NsS'no-strip'
p84
NsS'rebuild'
p85
NsS'win32-simulator-dll'
p86
NsS'strict'
p87
NsS'mips_dbg_args'
p88
S'../../tools/DeployTool/DeployTool.exe --dir "c:\\Users\\Daniel\\Documents\\DrawSprite_Iw2D\\DrawSprite_Iw2D\\build_drawsprite_iw2d_vc9"'
p89
sS'enable-global-path'
p90
NsS'iphone'
p91
NsS'cflags'
p92
NsS'dist-dir'
p93
g4
sS'jflags'
p94
NsS'distcc'
p95
NsS'external-compiler'
p96
NsS'no-distcc'
p97
NsS'preinclude'
p98
NsS'using_sdk'
p99
I01
sS'nologo'
p100
NsS'warn-level'
p101
I2
sS'mips_dbg_exe'
p102
S'c:\\marmalade\\6.2\\s3e\\makefile_builder\\tool_launcher.exe'
p103
sS'mkb_in'
p104
S'c:/Users/Daniel/Documents/DrawSprite_Iw2D/DrawSprite_Iw2D/DrawSprite_Iw2D.mkb'
p105
sS'arm_dbg_exe'
p106
S'c:/marmalade/6.2/s3e\\bin\\armdebug.exe'
p107
sS'list-targets'
p108
NsS'arm_rel_exe'
p109
g103
sS'arm_rel_args'
p110
g89
sS'makedeps'
p111
NsS'default-buildenv'
p112
S'VC9'
p113
sS'x86_rel_exe'
p114
g20
sS'preprocess-java'
p115
NsS'mips_rel_args'
p116
g89
sS'defines'
p117
NsS'lib'
p118
NsS'global_argv'
p119
(lp120
S'C:\\Marmalade\\6.2\\s3e\\makefile_builder\\mkb.py'
p121
aS'C:\\Users\\Daniel\\Documents\\DrawSprite_Iw2D\\DrawSprite_Iw2D\\DrawSprite_Iw2D.mkb'
p122
asS'make'
p123
NsS'optimise-speed'
p124
NsS'internal'
p125
NsS'enable-stdinc'
p126
NsS'deploy-only'
p127
NsS'x86'
p128
NsS'deploy'
p129
g4
sS'x86_run_exe'
p130
S'c:/marmalade/6.2/s3e\\win32\\s3e_console.exe'
p131
sS'x86_rel_args'
p132
S'-via:"c:\\Users\\Daniel\\Documents\\DrawSprite_Iw2D\\DrawSprite_Iw2D\\build_drawsprite_iw2d_vc9\\DrawSprite_Iw2D_vc9_release.via"'
p133
sS'gcc_rel_args'
p134
g89
sS'mips'
p135
NsS'incredibuild'
p136
NsS'strict-compile'
p137
NsS'use-auto-subdirs'
p138
NsS'mips_rel_exe'
p139
g103
sS'app-icf'
p140
g4
sS'deployargs'
p141
NsS'mkf_in'
p142
(lp143
S'c:\\marmalade\\6.2\\modules\\iw2d\\iw2d.mkf'
p144
aS'c:\\marmalade\\6.2\\modules\\iwgx\\iwgx.mkf'
p145
aS'c:\\marmalade\\6.2\\modules\\iwgeom\\iwgeom.mkf'
p146
aS'c:\\marmalade\\6.2\\modules\\iwutil\\iwutil.mkf'
p147
aVc:\u005cusers\u005cdaniel\u005cappdata\u005croaming\u005cmarmalade\u005cpackages\u005c6.2.0\u005clibjpeg_6b\u005clibjpeg.mkf
p148
aVc:\u005cusers\u005cdaniel\u005cappdata\u005croaming\u005cmarmalade\u005cpackages\u005c6.2.0\u005clibpng_1.2.34\u005clibpng.mkf
p149
aVc:\u005cusers\u005cdaniel\u005cappdata\u005croaming\u005cmarmalade\u005cpackages\u005c6.2.0\u005czlib_1.2.4\u005czlib.mkf
p150
aS'c:\\marmalade\\6.2\\modules\\iwresmanager\\iwresmanager.mkf'
p151
aS'c:\\marmalade\\6.2\\modules\\iwgl\\iwgl.mkf'
p152
aS'c:\\marmalade\\6.2\\modules\\iwgxfont\\iwgxfont.mkf'
p153
aVc:\u005cusers\u005cdaniel\u005cappdata\u005croaming\u005cmarmalade\u005cpackages\u005c6.2.0\u005ctiniconv_1.0.1\u005ctiniconv.mkf
p154
asS'strict-mkb'
p155
NsS'executeargs'
p156
NsS'clean'
p157
NsS'no-asm'
p158
NsS'output-name'
p159
g4
sS'no-modules'
p160
NsS'find_define'
p161
g4
s(dp162
S'c:\\marmalade\\6.2\\s3e\\makefile_builder\\templates\\xcode_pbxuser.py'
p163
F1355847712.0
sS'c:\\marmalade\\6.2\\s3e\\makefile_builder\\templates'
p164
F1357489982.319942
sS'c:\\marmalade\\6.2\\s3e\\makefile_builder\\plugins\\null.pyc'
p165
F1355859750.0
sS'c:\\marmalade\\6.2\\s3e\\makefile_builder\\plugins\\XcodeEmitter.pyc'
p166
F1358012760.6008513
sS'c:\\marmalade\\6.2\\s3e\\makefile_builder\\plugins'
p167
F1358012761.1108904
sS'c:\\marmalade\\6.2\\s3e\\makefile_builder\\extensions'
p168
F1357489982.328934
sS'c:\\marmalade\\6.2\\s3e\\makefile_builder\\templates\\vc6_opt.pyc'
p169
F1355859750.0
sS'c:\\marmalade\\6.2\\s3e\\makefile_builder\\templates\\win32_vcxproj_filters.pyc'
p170
F1355859750.0
sS'c:\\marmalade\\6.2\\s3e\\makefile_builder\\mkb_parser.pyc'
p171
F1355859750.0
sS'c:\\marmalade\\6.2\\s3e\\makefile_builder\\plugins\\xcode4_schememanagement.pyc'
p172
F1358012760.6138601
sS'c:\\marmalade\\6.2\\s3e\\makefile_builder\\plugins\\win32_vc6.pyc'
p173
F1355859750.0
sS'c:\\marmalade\\6.2\\s3e\\makefile_builder\\templates\\template.suo'
p174
F1355847712.0
sS'c:\\marmalade\\6.2\\s3e\\makefile_builder\\plugins\\s3e_xcode.py'
p175
F1355847710.0
sS'c:\\marmalade\\6.2\\s3e\\makefile_builder\\templates\\make.py'
p176
F1355847710.0
sS'c:\\marmalade\\6.2\\s3e\\makefile_builder\\docs\\options.txt'
p177
F1355847710.0
sS'c:\\marmalade\\6.2\\s3e\\makefile_builder\\plugins\\linux_scons.pyc'
p178
F1355859750.0
sS'c:\\marmalade\\6.2\\s3e\\makefile_builder\\templates\\linker_script'
p179
F1355847710.0
sS'c:\\marmalade\\6.2\\s3e\\makefile_builder\\plugins\\s3e_scons.pyc'
p180
F1355859750.0
sS'c:\\marmalade\\6.2\\s3e\\makefile_builder\\templates\\xcode.py'
p181
F1355847712.0
sS'c:\\marmalade\\6.2\\s3e\\makefile_builder\\plugins\\java.pyc'
p182
F1355859750.0
sS'c:\\marmalade\\6.2\\s3e\\makefile_builder\\templates\\win32_dsw.pyc'
p183
F1355859750.0
sS'c:\\marmalade\\6.2\\s3e\\makefile_builder\\docs\\mkb.defines.txt'
p184
F1355847710.0
sS'c:\\marmalade\\6.2\\s3e\\makefile_builder\\docs\\deprecated.defines.txt'
p185
F1355847710.0
sS'c:\\marmalade\\6.2\\s3e\\makefile_builder\\templates\\win32_vcxproj.pyc'
p186
F1355859750.0
sS'c:\\marmalade\\6.2\\s3e\\makefile_builder\\deployment.pyc'
p187
F1355859750.0
sS'c:\\marmalade\\6.2\\s3e\\makefile_builder\\plugins\\s3e_qmake.py'
p188
F1355847710.0
sS'c:\\marmalade\\6.2\\s3e\\makefile_builder\\templates\\win32_sln.pyc'
p189
F1355859750.0
sS'c:\\marmalade\\6.2\\s3e\\makefile_builder\\tool_launcher.exe'
p190
F1355848704.0
sS'c:\\marmalade\\6.2\\s3e\\makefile_builder\\plugins\\Emitter.pyc'
p191
F1355859750.0
sS'c:\\marmalade\\6.2\\s3e\\makefile_builder\\docs\\deprecated.options.txt'
p192
F1355847710.0
sS'c:\\marmalade\\6.2\\s3e\\makefile_builder\\templates\\rvct_linker_script'
p193
F1355847712.0
sS'c:\\marmalade\\6.2\\s3e\\makefile_builder\\plugins\\vc6_utils.pyc'
p194
F1355859750.0
sS'c:\\marmalade\\6.2\\s3e\\makefile_builder\\mkb_main.pyc'
p195
F1355859750.0
sS'c:\\marmalade\\6.2\\s3e\\makefile_builder\\plugins\\iphone.pyc'
p196
F1355859750.0
sS'c:\\marmalade\\6.2\\s3e\\makefile_builder\\plugins\\S3EEmitter.pyc'
p197
F1355859750.0
sS'c:\\marmalade\\6.2\\s3e\\makefile_builder\\plugins\\xcode4_schememanagement.py'
p198
F1355847710.0
sS'c:\\marmalade\\6.2\\s3e\\makefile_builder\\templates\\xcode4_DeployTool.xcscheme'
p199
F1355847712.0
sS'c:\\marmalade\\6.2\\s3e\\makefile_builder\\mkb_util.pyc'
p200
F1355859750.0
sS'c:\\marmalade\\6.2\\s3e\\makefile_builder\\mkb_globals.pyc'
p201
F1355859750.0
sS'c:\\marmalade\\6.2\\s3e\\makefile_builder\\templates\\qmake_user.py'
p202
F1355847710.0
sS'c:\\marmalade\\6.2\\s3e\\makefile_builder\\plugins\\vc7_utils.pyc'
p203
F1355859750.0
sS'c:\\marmalade\\6.2\\s3e\\makefile_builder\\templates\\MainWindow.xib'
p204
F1355847710.0
sS'c:\\marmalade\\6.2\\s3e\\makefile_builder\\plugins\\s3e_make.pyc'
p205
F1355859750.0
sS'c:\\marmalade\\6.2\\s3e\\makefile_builder\\templates\\vc10_user.pyc'
p206
F1355859750.0
sS'c:\\marmalade\\6.2\\s3e\\makefile_builder\\templates\\Info.plist'
p207
F1355847710.0
sS'c:\\marmalade\\6.2\\s3e\\makefile_builder\\plugins\\SConsEmitter.pyc'
p208
F1355859750.0
sS'c:\\marmalade\\6.2\\s3e\\makefile_builder\\docs'
p209
F1357489982.359184
sS'c:\\marmalade\\6.2\\s3e\\makefile_builder\\mkb_option.pyc'
p210
F1355859750.0
sS'c:\\marmalade\\6.2\\s3e\\makefile_builder\\docs\\parse_options.pyc'
p211
F1355859752.0
sS'c:\\marmalade\\6.2\\s3e\\makefile_builder\\plugins\\XcodeEmitter.py'
p212
F1355847710.0
sS'c:\\marmalade\\6.2\\s3e\\makefile_builder\\mkb_launcher.exe'
p213
F1355848700.0
sS'c:\\marmalade\\6.2\\s3e\\makefile_builder\\templates\\vc8_user.pyc'
p214
F1355859750.0
sS'c:\\marmalade\\6.2\\s3e\\makefile_builder\\templates\\win32_dsp.pyc'
p215
F1355859750.0
sS'c:\\marmalade\\6.2\\s3e\\makefile_builder\\templates\\mips_linker_script'
p216
F1355847710.0
sS'c:\\marmalade\\6.2\\s3e\\makefile_builder\\mkb.py'
p217
F1355847710.0
sS'c:\\marmalade\\6.2\\s3e\\makefile_builder\\plugins\\osx_scons.pyc'
p218
F1355859750.0
sS'c:\\marmalade\\6.2\\s3e\\makefile_builder\\plugins\\deploy.pyc'
p219
F1355859750.0
sS'c:\\marmalade\\6.2\\s3e\\makefile_builder\\plugins\\VisualStudioEmitter.pyc'
p220
F1355859750.0
sS'c:\\marmalade\\6.2\\s3e\\makefile_builder\\plugins\\s3e_qmake.pyc'
p221
F1358012760.8859708
sS'c:\\marmalade\\6.2\\s3e\\makefile_builder\\plugins\\s3e_xcode.pyc'
p222
F1358012761.1128991
sS'c:\\marmalade\\6.2\\s3e\\makefile_builder\\docs\\deployment_options.txt'
p223
F1355847710.0
sS'c:\\marmalade\\6.2\\s3e\\makefile_builder\\plugins\\s3e_web.pyc'
p224
F1355859750.0
sS'c:\\marmalade\\6.2\\s3e\\makefile_builder\\templates\\template.opt'
p225
F1355847712.0
sS'c:\\marmalade\\6.2\\s3e\\makefile_builder\\templates\\scons.pyc'
p226
F1355859750.0
sS'c:\\marmalade\\6.2\\s3e\\makefile_builder\\templates\\xcode4.xcscheme'
p227
F1355847712.0
sS'c:\\marmalade\\6.2\\s3e\\makefile_builder\\templates\\vc7_suo.pyc'
p228
F1355859750.0
sS'c:\\marmalade\\6.2\\s3e\\makefile_builder\\plugins\\MakeEmitter.pyc'
p229
F1355859750.0
sS'c:\\marmalade\\6.2\\s3e\\makefile_builder\\templates\\qmake.py'
p230
F1355847710.0
sS'c:\\marmalade\\6.2\\s3e\\makefile_builder\\templates\\win32_vcproj.pyc'
p231
F1355859750.0
sS'c:\\marmalade\\6.2\\s3e\\makefile_builder\\templates\\gdb_start.txt'
p232
F1355847710.0
sS'c:\\marmalade\\6.2\\s3e\\makefile_builder\\plugins\\s3e_vc6.pyc'
p233
F1355859750.0
sS'c:\\marmalade\\6.2\\s3e\\makefile_builder\\plugins\\osx_xcode.pyc'
p234
F1355859750.0
sS'c:\\marmalade\\6.2\\s3e\\makefile_builder\\extensions\\make_dist.py'
p235
F1355847710.0
sccopy_reg
_reconstructor
p236
(cmkb_main
MkbFile
p237
c__builtin__
object
p238
Ntp239
Rp240
(dp241
g5
(lp242
sS'target_name'
p243
S'DrawSprite_Iw2D'
p244
sS'current_file'
p245
g105
sS'package_path'
p246
(lp247
VC:\u005cUsers\u005cDaniel\u005cAppData\u005cRoaming\u005cMarmalade\u005cpackages\u005c6.2.0\u005clibjpeg_6b
p248
aVC:\u005cUsers\u005cDaniel\u005cAppData\u005cRoaming\u005cMarmalade\u005cpackages\u005c6.2.0\u005clibpng_1.2.34
p249
aVC:\u005cUsers\u005cDaniel\u005cAppData\u005cRoaming\u005cMarmalade\u005cpackages\u005c6.2.0\u005czlib_1.2.4
p250
aVC:\u005cUsers\u005cDaniel\u005cAppData\u005cRoaming\u005cMarmalade\u005cpackages\u005c6.2.0\u005ctiniconv_1.0.1
p251
asS'post_build'
p252
(lp253
(lp254
S'c:/marmalade/6.2/s3e/tools'
p255
aS'C:\\Marmalade\\6.2\\s3e\\python\\python.exe .\\process_map.py "$(TargetPath)"'
p256
aa(S'c:\\marmalade\\6.2\\s3e'
p257
S'"c:\\marmalade\\6.2\\s3e\\bin\\s3e_plink" -l "$(TargetPath)"'
p258
g128
tp259
asS'librarys'
p260
(lp261
g236
(cmkb_main
Library
p262
g238
Ntp263
Rp264
(dp265
S'name'
p266
S'vc6_compat.lib'
p267
sS'expand_name'
p268
I00
sS'include_spec_rvct_objs'
p269
(lp270
sS'include_all_objs'
p271
I00
sS'share_arm'
p272
I00
sS'arch'
p273
S'x86'
p274
sS'nodebug'
p275
I00
sg32
Nsbag236
(g262
g238
Ntp276
Rp277
(dp278
g266
S'jpeg'
p279
sg268
I01
sg269
(lp280
sg271
I00
sg272
Nsg273
Nsg275
I00
sg32
Nsbag236
(g262
g238
Ntp281
Rp282
(dp283
g266
S'z'
p284
sg268
I01
sg269
g280
sg271
I00
sg272
Nsg273
Nsg275
I00
sg32
Nsbag236
(g262
g238
Ntp285
Rp286
(dp287
g266
S'png'
p288
sg268
I01
sg269
g280
sg271
I00
sg272
Nsg273
Nsg275
I00
sg32
Nsbag236
(g262
g238
Ntp289
Rp290
(dp291
g266
S'iwutil'
p292
sg268
I01
sg269
g280
sg271
I00
sg272
I01
sg273
Nsg275
I00
sg32
Nsbag236
(g262
g238
Ntp293
Rp294
(dp295
g266
S'iwgeom'
p296
sg268
I01
sg269
g280
sg271
I00
sg272
I01
sg273
Nsg275
I00
sg32
Nsbag236
(g262
g238
Ntp297
Rp298
(dp299
g266
S'iwresmanager'
p300
sg268
I01
sg269
g280
sg271
I00
sg272
I01
sg273
Nsg275
I00
sg32
Nsbag236
(g262
g238
Ntp301
Rp302
(dp303
g266
S'ATI_Compress_MT_VC7.lib'
p304
sg268
I00
sg269
g280
sg271
I00
sg272
Nsg273
S'x86'
p305
sg275
I00
sg32
Nsbag236
(g262
g238
Ntp306
Rp307
(dp308
g266
S'iwgx'
p309
sg268
I01
sg269
g280
sg271
I00
sg272
I01
sg273
Nsg275
I00
sg32
Nsbag236
(g262
g238
Ntp310
Rp311
(dp312
g266
S'iwgl'
p313
sg268
I01
sg269
g280
sg271
I00
sg272
Nsg273
Nsg275
I00
sg32
Nsbag236
(g262
g238
Ntp314
Rp315
(dp316
g266
S'iwgxfont'
p317
sg268
I01
sg269
g280
sg271
I00
sg272
I01
sg273
Nsg275
I00
sg32
Nsbag236
(g262
g238
Ntp318
Rp319
(dp320
g266
S'tiniconv'
p321
sg268
I01
sg269
g280
sg271
I00
sg272
Nsg273
Nsg275
I00
sg32
Nsbag236
(g262
g238
Ntp322
Rp323
(dp324
g266
S'iw2d'
p325
sg268
I01
sg269
g280
sg271
I00
sg272
I01
sg273
Nsg275
I00
sg32
Nsbag236
(g262
g238
Ntp326
Rp327
(dp328
g266
S's3e_cpp'
p329
sg268
I01
sg269
g270
sg271
I00
sg272
I00
sg273
Nsg275
I00
sg32
Nsbag236
(g262
g238
Ntp330
Rp331
(dp332
g266
S's3e'
p333
sg268
I01
sg269
(lp334
S'iwcrt.o'
p335
asg271
I00
sg272
I00
sg273
Nsg275
I00
sg32
Nsbag236
(g262
g238
Ntp336
Rp337
(dp338
g266
S's3e_api'
p339
sg268
I01
sg269
g270
sg271
I00
sg272
I00
sg273
Nsg275
I1
sg32
Nsbag236
(g262
g238
Ntp340
Rp341
(dp342
g266
S's3e_api'
p343
sg268
I00
sg269
g270
sg271
I00
sg272
I00
sg273
S'arm'
p344
sg275
I00
sg32
S'gcc'
p345
sbag236
(g262
g238
Ntp346
Rp347
(dp348
g266
S'stdc++'
p349
sg268
I00
sg269
g270
sg271
I00
sg272
I00
sg273
S'mips'
p350
sg275
I00
sg32
Nsbag236
(g262
g238
Ntp351
Rp352
(dp353
g266
S'c'
p354
sg268
I00
sg269
g270
sg271
I00
sg272
I00
sg273
S'mips'
p355
sg275
I00
sg32
Nsbag236
(g262
g238
Ntp356
Rp357
(dp358
g266
S'm'
p359
sg268
I00
sg269
g270
sg271
I00
sg272
I00
sg273
S'mips'
p360
sg275
I00
sg32
Nsbag236
(g262
g238
Ntp361
Rp362
(dp363
g266
S'gcc'
p364
sg268
I00
sg269
g270
sg271
I00
sg272
I00
sg273
S'mips'
p365
sg275
I00
sg32
NsbasS'library_paths'
p366
(lp367
g236
(cmkb_main
LibraryPath
p368
g238
Ntp369
Rp370
(dp371
S'expand_path'
p372
I01
sS'add_cpu_variant'
p373
I00
sg266
Vc:/users/daniel/appdata/roaming/marmalade/packages/6.2.0/libjpeg_6b
p374
sbag236
(g368
g238
Ntp375
Rp376
(dp377
g372
I01
sg373
I00
sg266
Vc:/users/daniel/appdata/roaming/marmalade/packages/6.2.0/zlib_1.2.4
p378
sbag236
(g368
g238
Ntp379
Rp380
(dp381
g372
I01
sg373
I00
sg266
Vc:/users/daniel/appdata/roaming/marmalade/packages/6.2.0/libpng_1.2.34
p382
sbag236
(g368
g238
Ntp383
Rp384
(dp385
g372
I01
sg373
I00
sg266
S'c:/marmalade/6.2/modules/iwutil'
p386
sbag236
(g368
g238
Ntp387
Rp388
(dp389
g372
I01
sg373
I00
sg266
S'c:/marmalade/6.2/modules/iwgeom'
p390
sbag236
(g368
g238
Ntp391
Rp392
(dp393
g372
I01
sg373
I00
sg266
S'c:/marmalade/6.2/modules/iwresmanager'
p394
sbag236
(g368
g238
Ntp395
Rp396
(dp397
g372
I00
sg373
I00
sg266
S'c:/marmalade/6.2/modules/iwgx/atitools'
p398
sbag236
(g368
g238
Ntp399
Rp400
(dp401
g372
I01
sg373
I00
sg266
S'c:/marmalade/6.2/modules/iwgx'
p402
sbag236
(g368
g238
Ntp403
Rp404
(dp405
g372
I01
sg373
I00
sg266
S'c:/marmalade/6.2/modules/iwgl'
p406
sbag236
(g368
g238
Ntp407
Rp408
(dp409
g372
I01
sg373
I00
sg266
S'c:/marmalade/6.2/modules/iwgxfont'
p410
sbag236
(g368
g238
Ntp411
Rp412
(dp413
g372
I01
sg373
I00
sg266
Vc:/users/daniel/appdata/roaming/marmalade/packages/6.2.0/tiniconv_1.0.1
p414
sbag236
(g368
g238
Ntp415
Rp416
(dp417
g372
I01
sg373
I00
sg266
S'c:/marmalade/6.2/modules/iw2d'
p418
sbag236
(g368
g238
Ntp419
Rp420
(dp421
g372
I01
sg373
I00
sg266
S'c:/marmalade/6.2/s3e'
p422
sbasS'macros'
p423
(dp424
S'IW_USE_CALLSTACK'
p425
NsS'IW_SDK'
p426
NsS'I3D_PLATFORM_S3E'
p427
NsS'IW_MKF_LIBJPEG'
p428
NsS'I3D_OS_S3E'
p429
NsS'IW_MKF_TINICONV'
p430
NsS'IW_APP_VERSION'
p431
S'"1.0"'
p432
sS'IW_MKF_IWRESMANAGER'
p433
NsS'IW_MKF_IWUTIL'
p434
NsS'IW_MKF_IWGEOM'
p435
NsS'IW_ASSERTION_CHANNEL_2D'
p436
S'1'
p437
sS'IW_APP_NAME'
p438
S'"DrawSprite_Iw2D"'
p439
sS'IW_MKF_IWGXFONT'
p440
NsS'IW_PLATFORM_S3E'
p441
NsS'IW_MKF_ZLIB'
p442
NsS'IW_MKF_IWGX'
p443
NsS'IW_USE_ASSERTIONS'
p444
NsS'_CRT_SECURE_NO_DEPRECATE'
p445
NsS'IW_MKF_IWGL'
p446
NsS'IW_MKF_LIBPNG'
p447
NsS'IW_DEBUG'
p448
NsS'IW_USE_TRACING'
p449
NsS'S3E_INCLUDE_LEGACY'
p450
NsS'__S3E__'
p451
NsS'IW_MKF_IW2D'
p452
NssS'done_warnings'
p453
(dp454
sS'subprojects'
p455
(dp456
g151
S'iwresmanager'
p457
sVc:\u005cusers\u005cdaniel\u005cappdata\u005croaming\u005cmarmalade\u005cpackages\u005c6.2.0\u005clibjpeg_6b\u005clibjpeg.mkf
p458
S'libjpeg'
p459
sg147
S'iwutil'
p460
sVc:\u005cusers\u005cdaniel\u005cappdata\u005croaming\u005cmarmalade\u005cpackages\u005c6.2.0\u005czlib_1.2.4\u005czlib.mkf
p461
S'zlib'
p462
sVc:\u005cusers\u005cdaniel\u005cappdata\u005croaming\u005cmarmalade\u005cpackages\u005c6.2.0\u005ctiniconv_1.0.1\u005ctiniconv.mkf
p463
S'tiniconv'
p464
sVc:\u005cusers\u005cdaniel\u005cappdata\u005croaming\u005cmarmalade\u005cpackages\u005c6.2.0\u005clibpng_1.2.34\u005clibpng.mkf
p465
S'libpng'
p466
sg146
S'iwgeom'
p467
sg145
S'iwgx'
p468
sg153
S'iwgxfont'
p469
sg152
S'iwgl'
p470
sg144
S'iw2d'
p471
ssS'deployments'
p472
(dp473
S'Default'
p474
g236
(cdeployment
Deployment
p475
g238
Ntp476
Rp477
(dp478
S'got_version'
p479
I0
sS'assets'
p480
g474
sS'mkb'
p481
g240
sS'target'
p482
Nsg273
(lp483
sS'options'
p484
(dp485
S'iphone-link-lib'
p486
(lp487
sS'game-icf'
p488
NsS'iphone-icon-high-res'
p489
NsS'win32-pref-windowposy'
p490
NsS'win32-pref-windowposx'
p491
NsS'bada-appsecret'
p492
NsS'playbook-author'
p493
NsS'winmobile-icon32'
p494
NsS'linux-ext-lib'
p495
(lp496
sS'target-folder'
p497
NsS'iphone-splashscreen-landscape'
p498
NsS'ngi-splashscreen-port'
p499
NsS'psp-discversion'
p500
NsS'lgtv-use-drm'
p501
NsS'nds-bannertitle-sp'
p502
NsS'symbian-platsecflags'
p503
NsS'psp-producer'
p504
NsS'blackberry-playbook-icon'
p505
NsS'iphone-icon-ipad-search-high-res'
p506
NsS'iphone-provisioning-profile'
p507
NsS'copyright'
p508
NsS'winmobile-png45'
p509
NsS'iphone-link-libdir'
p510
(lp511
sS'symbian-cert'
p512
NsS'nds-bannertitle-hn'
p513
NsS'brew-depends'
p514
NsS'winmobile-png60'
p515
NsS'winmobile-nouninstall'
p516
NsS'brew-mif'
p517
NsS'blackberry-phone-icon'
p518
NsS'android-icon-hdpi'
p519
NsS'iphone-ipad-only'
p520
NsS'iphone-splash-full-orient'
p521
NsS'iphone-bundle-url-name'
p522
NsS'android-aliasname'
p523
NsS'iphone-splash-retina-generate'
p524
NsS'psp-dlgmanual'
p525
NsS'iphone-backgroundmode-audio'
p526
NsS'android-pkgname'
p527
NsS'webos-memory'
p528
NsS'brew-uid'
p529
NsS'android-keypass'
p530
NsS'ngi-uid'
p531
NsS'symbian-locationsupport'
p532
NsS'iphone-signing-host'
p533
NsS'ngi-install-sisx-only'
p534
NsS'nds-bannertitle-jp'
p535
NsS'name'
p536
NsS'symbian-run-on-install'
p537
NsS'osx-info-plist'
p538
NsS'symbian-icon1-format'
p539
NsS'uiq3-uid'
p540
NsS'psp-dlgcontentid'
p541
NsS'ngi-gcce-loader'
p542
NsS'auto-derbh'
p543
NsS'arch'
p544
NsS'bada-use-partner-privileges'
p545
NsS'nds-bannertitle-it'
p546
NsS'playbook-authorid'
p547
NsS'psp-copyright'
p548
NsS'ngi-achievements'
p549
NsS'splashscreen'
p550
NsS'symbian-soundrecordsupport'
p551
NsS'symbian-icon2-format'
p552
NsS'long-caption'
p553
NsS'iphone-icon-settings-high-res'
p554
NsS'android-manifest'
p555
NsS'ngi-splash-producer'
p556
NsS'winmobile-icon16'
p557
NsS's3e-compression'
p558
NsS'ngi-game-extras'
p559
NsS'winmobile-icon64'
p560
NsS'iphone-link-opts'
p561
(lp562
sS'iphone-region'
p563
NsS'uiq3-icon3-mask'
p564
NsS'winmobile-start-menu-folder'
p565
NsS'brew-clsid'
p566
NsS'brew-encoding'
p567
NsS'symbian-icon1'
p568
NsS'symbian-icon2'
p569
NsS'ngi-icon1'
p570
NsS'psp-parentallevel'
p571
NsS'ngi-icon3'
p572
NsS'ngi-icon2'
p573
NsS'ngi-icon4'
p574
NsS'osx-ext-dll'
p575
(lp576
sS'version'
p577
NsS'bada-manifest'
p578
NsS'provider'
p579
NsS'iphone-prerendered-icon'
p580
NsS'iphone-appid'
p581
NsS'playbook-keystore'
p582
NsS'nds-initialcode'
p583
NsS'ngi-splashscreen-land'
p584
NsS'symbian-osexecsupport'
p585
NsS'blackberry-cskpass'
p586
NsS'iphone-persistent-wifi'
p587
NsS'symbian7-uid'
p588
NsS'winmobile-setup-dll'
p589
NsS'android-external-jars'
p590
(lp591
sS'android-install-location'
p592
NsS'olddeploytoolstyle'
p593
NsS'nds-privatesavedatasize'
p594
NsS'psp-snd0'
p595
NsS'nds-bannertitle-cn'
p596
NsS'winmobile-trace-file'
p597
NsS'playbook-storepass'
p598
NsS'ngi-no-assets'
p599
NsS'android-icon-ldpi'
p600
NsS'psp-appversion'
p601
NsS'networking'
p602
NsS'winmobile-install-folder'
p603
NsS'ngi-metadata'
p604
NsS'android-external-res'
p605
(lp606
sS'manufacturer'
p607
NsS'android-icon-gallery'
p608
NsS'bada-signed'
p609
NsS'nds-publicsavedatasize'
p610
NsS'iphone-apple-wwdr-cert'
p611
NsS'symbian9-uid'
p612
NsS'iphone-extra-sections'
p613
NsS'blackberry-keystore'
p614
NsS'iphone-nosign'
p615
NsS'caption'
p616
NsS'winmobile-ampd-part-number'
p617
NsS'iphone-icon-large'
p618
NsS'android-storepass'
p619
NsS'iphone-info-plist'
p620
NsS'ngi-arena-config'
p621
NsS'android-extra-manifest'
p622
(lp623
sS'iphone-icon-ipad-search'
p624
NsS'android-custom-activity'
p625
NsS'version-minor'
p626
NsS'iphone-icon-ipad'
p627
NsS'bada-appid'
p628
NsS'blackberry-authorid'
p629
NsS'iphone-distribution-key'
p630
NsS'iphone-link-libdirs'
p631
(lp632
sS'symbian-maxheapsize'
p633
NsS'embed-icf'
p634
NsS'psp-titlename'
p635
NsS'symbian-icon1-mask'
p636
NsS'nds-makercode'
p637
NsS'psp-icon1'
p638
NsS'priv-sign-key'
p639
NsS'webos-appinfo'
p640
NsS'symbian-cert-key'
p641
NsS'android-icon'
p642
NsS'webos-appid'
p643
NsS'android-icon-nonstandard'
p644
NsS'uiq3-icon2'
p645
NsS'iphone-icon-settings'
p646
NsS'ngi-gameinfo'
p647
NsS'iphone-distribution-cert'
p648
NsS'osx-icon'
p649
NsS'symbian-disable-ecompxl'
p650
NsS'splashscreen-auto-onblack'
p651
NsS'icon'
p652
NsS'nds-romheadertemplate'
p653
NsS'webos-icon'
p654
NsS'ngi-arena-rss'
p655
NsS'nds-bannertitle-en'
p656
NsS'win32-ext-dll'
p657
(lp658
sS'psp-dlgicon0'
p659
NsS'iphone-development-key'
p660
NsS'psp-discid'
p661
NsS'winmobile-icon48'
p662
NsS'uiq3-icon1-mask'
p663
NsS'nds-titlename'
p664
NsS'android-so'
p665
(lp666
sS'android-supports-gl-texture'
p667
(lp668
sS'bada-splash'
p669
NsS'version-revision'
p670
NsS'android-icon-mdpi'
p671
NsS'android-keystore'
p672
NsS'uiq3-icon2-format'
p673
NsS'version-string'
p674
NsS'winmobile-png90'
p675
NsS'iphone-icon-ipad-high-res'
p676
NsS'iphone-disable-ipad'
p677
NsS'uiq3-icon1-format'
p678
NsS'iphone-bundle-url-schemes'
p679
NsS'nds-icon'
p680
NsS'ngi-arena-locales'
p681
NsS'iphone-development-cert'
p682
NsS'ngi-filemanager-lib'
p683
NsS'android_extra_strings'
p684
NsS'playbook-icon'
p685
NsS'uid'
p686
NsS'playbook-cskpass'
p687
NsS'iphone-signing-identity'
p688
NsS'brew-icon-medium'
p689
NsS'ngi-key'
p690
NsS'android-extra-application-manifest'
p691
(lp692
sS'iphone-enable-4inch-retina'
p693
NsS'pkguid-as-uid'
p694
NsS'symbian-icon1-mask-black'
p695
NsS'pub-sign-key'
p696
NsS'nds-bannertitle-fr'
p697
NsS'win32-pref-windowtitle'
p698
NsS'symbian8-uid'
p699
NsS'splashscreen-use-all'
p700
NsS'android-unsigned'
p701
NsS'brew-priviledges'
p702
NsS'ngi-cert'
p703
NsS'brew-icon-small'
p704
NsS'psp-dlgpic2'
p705
NsS'bada-icon'
p706
NsS'psp-dlgpic0'
p707
NsS'lgtv_l9-use-drm'
p708
NsS'psp-pic0'
p709
NsS'psp-pic1'
p710
NsS'iphone-icon'
p711
NsS'psp-icon0'
p712
NsS'blackberry-permissions-access-shared'
p713
NsS'uiq3-icon3-format'
p714
NsS'version-major'
p715
NsS'iphone_bundle_localisations'
p716
NsS'winmobile-icon'
p717
NsS'blackberry-author'
p718
NsS'symbian-keypwd'
p719
NsS'iphone-no-splash'
p720
NsS'playbook-access-shared'
p721
NsS'psp-dlghealthwarning'
p722
NsS'iphone-link-libs'
p723
(lp724
sS'ngi-filemanager-dll'
p725
NsS'iphone-splash'
p726
NsS'nds-bannertitle-ge'
p727
NsS'android_icon_gallery'
p728
NsS'brew-icon-large'
p729
NsS'iphone-app-fonts'
p730
NsS'symbian-icon2-mask'
p731
NsS'iphone-sign-for-distribution'
p732
NsS'psp-dlgprotectdocument'
p733
NsS'winmobile-cab-compress'
p734
NsS'uiq3-icon3'
p735
NsS'uiq3-icon1'
p736
NsS'itunes-artwork'
p737
NsS'win32-icon'
p738
NsS'assets'
p739
NsS'symbian-key'
p740
NsS'app-icf'
p741
NsS'blackberry-storepass'
p742
NsS'ngi-arena-rsc'
p743
NsS'brew-compress-loader'
p744
NsS'uiq3-icon2-mask'
p745
NsS'symbian-icon2-mask-black'
p746
NsS'symbian-icon-svg'
p747
NsS'android-extra-strings'
p748
NsS'iphone-splashscreen-portrait'
p749
NsS'iphone-bundle-localisations'
p750
Nssg266
g474
sbssS'platform'
p751
S'S3E'
p752
sg53
S'1.0'
p753
sS'arcade_platform'
p754
g4
sS'extensions'
p755
(dp756
sS'source_groups_tree'
p757
(dp758
S'(libpng)'
p759
(dp760
Vc:/users/daniel/appdata/roaming/marmalade/packages/6.2.0/libpng_1.2.34/libpng.mkf
p761
(lp762
I1
a(dp763
asVc:/users/daniel/appdata/roaming/marmalade/packages/6.2.0/libpng_1.2.34/h/png.h
p764
(lp765
I1
a(dp766
asVc:/users/daniel/appdata/roaming/marmalade/packages/6.2.0/libpng_1.2.34/h/pngconf.h
p767
(lp768
I1
ag766
assS'(libjpeg)'
p769
(dp770
Vc:/users/daniel/appdata/roaming/marmalade/packages/6.2.0/libjpeg_6b/h/cdjpeg.h
p771
(lp772
I1
a(dp773
asVc:/users/daniel/appdata/roaming/marmalade/packages/6.2.0/libjpeg_6b/h/jpeglib.h
p774
(lp775
I1
ag773
asVc:/users/daniel/appdata/roaming/marmalade/packages/6.2.0/libjpeg_6b/h/jmorecfg.h
p776
(lp777
I1
ag773
asVc:/users/daniel/appdata/roaming/marmalade/packages/6.2.0/libjpeg_6b/h/jerror.h
p778
(lp779
I1
ag773
asVc:/users/daniel/appdata/roaming/marmalade/packages/6.2.0/libjpeg_6b/libjpeg.mkf
p780
(lp781
I1
a(dp782
asVc:/users/daniel/appdata/roaming/marmalade/packages/6.2.0/libjpeg_6b/h/jdhuff.h
p783
(lp784
I1
ag773
asVc:/users/daniel/appdata/roaming/marmalade/packages/6.2.0/libjpeg_6b/h/cderror.h
p785
(lp786
I1
ag773
asVc:/users/daniel/appdata/roaming/marmalade/packages/6.2.0/libjpeg_6b/h/jdct.h
p787
(lp788
I1
ag773
asVc:/users/daniel/appdata/roaming/marmalade/packages/6.2.0/libjpeg_6b/h/jinclude.h
p789
(lp790
I1
ag773
asVc:/users/daniel/appdata/roaming/marmalade/packages/6.2.0/libjpeg_6b/h/jconfig.h
p791
(lp792
I1
ag773
asVc:/users/daniel/appdata/roaming/marmalade/packages/6.2.0/libjpeg_6b/h/transupp.h
p793
(lp794
I1
ag773
asVc:/users/daniel/appdata/roaming/marmalade/packages/6.2.0/libjpeg_6b/h/jversion.h
p795
(lp796
I1
ag773
asVc:/users/daniel/appdata/roaming/marmalade/packages/6.2.0/libjpeg_6b/h/jmemsys.h
p797
(lp798
I1
ag773
asVc:/users/daniel/appdata/roaming/marmalade/packages/6.2.0/libjpeg_6b/h/jchuff.h
p799
(lp800
I1
ag773
asVc:/users/daniel/appdata/roaming/marmalade/packages/6.2.0/libjpeg_6b/h/jpegint.h
p801
(lp802
I1
ag773
assS'(tiniconv)'
p803
(dp804
Vc:/users/daniel/appdata/roaming/marmalade/packages/6.2.0/tiniconv_1.0.1/h/tiniconv.h
p805
(lp806
I1
a(dp807
asVc:/users/daniel/appdata/roaming/marmalade/packages/6.2.0/tiniconv_1.0.1/tiniconv.mkf
p808
(lp809
I1
a(dp810
asVc:/users/daniel/appdata/roaming/marmalade/packages/6.2.0/tiniconv_1.0.1/h/tiniconv_int.h
p811
(lp812
I1
ag807
assS'Source'
p813
(dp814
S'c:/Users/Daniel/Documents/DrawSprite_Iw2D/DrawSprite_Iw2D/source/Main.h'
p815
(lp816
I1
a(dp817
asS'c:/Users/Daniel/Documents/DrawSprite_Iw2D/DrawSprite_Iw2D/source/Main.cpp'
p818
(lp819
I1
ag817
assS"'Marmalade Studio'"
p820
(dp821
S'iwgl'
p822
(dp823
S'c:/marmalade/6.2/modules/iwgl/h/IwGLExt.h'
p824
(lp825
I1
a(dp826
asS'c:/marmalade/6.2/modules/iwgl/docs/iwgl.config.txt'
p827
(lp828
I1
ag826
asS'c:/marmalade/6.2/modules/iwgl/h/IwGL.h'
p829
(lp830
I1
ag826
asS'c:/marmalade/6.2/modules/iwgl/iwgl.mkf'
p831
(lp832
I1
a(dp833
assS'iw2d'
p834
(dp835
S'c:/marmalade/6.2/modules/iw2d/h/Iw2D.h'
p836
(lp837
I1
a(dp838
asS'c:/marmalade/6.2/modules/iw2d/docs/iw2d_public.defines.txt'
p839
(lp840
I1
ag838
asS'c:/marmalade/6.2/modules/iw2d/docs/iw2d.config.txt'
p841
(lp842
I1
ag838
asS'c:/marmalade/6.2/modules/iw2d/iw2d.mkf'
p843
(lp844
I1
a(dp845
assS'iwgxfont'
p846
(dp847
S'c:/marmalade/6.2/modules/iwgxfont/docs/iwgxfont_public.defines.txt'
p848
(lp849
I1
a(dp850
asS'c:/marmalade/6.2/modules/iwgxfont/iwgxfont.mkf'
p851
(lp852
I1
a(dp853
asS'c:/marmalade/6.2/modules/iwgxfont/h/IwGxFontState.h'
p854
(lp855
I1
ag850
asS'c:/marmalade/6.2/modules/iwgxfont/h/IwGxFontGlyph.h'
p856
(lp857
I1
ag850
asS'c:/marmalade/6.2/modules/iwgxfont/h/IwGxFontPreparedData.h'
p858
(lp859
I1
ag850
asS'c:/marmalade/6.2/modules/iwgxfont/h/IwGxFontContainer.h'
p860
(lp861
I1
ag850
asS'c:/marmalade/6.2/modules/iwgxfont/h/IwGxFontTypes.h'
p862
(lp863
I1
ag850
asS'c:/marmalade/6.2/modules/iwgxfont/docs/iwgxfont.config.txt'
p864
(lp865
I1
ag850
asS'c:/marmalade/6.2/modules/iwgxfont/h/IwGxFont.h'
p866
(lp867
I1
ag850
assS'iwgeom'
p868
(dp869
S'c:/marmalade/6.2/modules/iwgeom/h/IwGeomMenu.h'
p870
(lp871
I1
a(dp872
asS'c:/marmalade/6.2/modules/iwgeom/h/IwGeomFVec3.h'
p873
(lp874
I1
ag872
asS'c:/marmalade/6.2/modules/iwgeom/h/IwGeom.h'
p875
(lp876
I1
ag872
asS'c:/marmalade/6.2/modules/iwgeom/h/IwGeomFVec4.h'
p877
(lp878
I1
ag872
asS'c:/marmalade/6.2/modules/iwgeom/h/IwGeomVec2.h'
p879
(lp880
I1
ag872
asS'c:/marmalade/6.2/modules/iwgeom/h/IwGeomIntersect.h'
p881
(lp882
I1
ag872
asS'c:/marmalade/6.2/modules/iwgeom/h/IwGeomFBBox.h'
p883
(lp884
I1
ag872
asS'c:/marmalade/6.2/modules/iwgeom/h/IwGeomLegacy.h'
p885
(lp886
I1
ag872
asS'c:/marmalade/6.2/modules/iwgeom/h/IwGeomSqrt.h'
p887
(lp888
I1
ag872
asS'c:/marmalade/6.2/modules/iwgeom/h/IwGeomFIntersect.h'
p889
(lp890
I1
ag872
asS'c:/marmalade/6.2/modules/iwgeom/h/IwGeomSVec4.h'
p891
(lp892
I1
ag872
asS'c:/marmalade/6.2/modules/iwgeom/h/IwGeomCore.h'
p893
(lp894
I1
ag872
asS'c:/marmalade/6.2/modules/iwgeom/h/IwGeomBBox.h'
p895
(lp896
I1
ag872
asS'c:/marmalade/6.2/modules/iwgeom/h/IwGeomVec4.h'
p897
(lp898
I1
ag872
asS'c:/marmalade/6.2/modules/iwgeom/h/IwGeomFPlane.h'
p899
(lp900
I1
ag872
asS'c:/marmalade/6.2/modules/iwgeom/docs/iwgeom.config.txt'
p901
(lp902
I1
ag872
asS'c:/marmalade/6.2/modules/iwgeom/h/IwGeomSQuat.h'
p903
(lp904
I1
ag872
asS'c:/marmalade/6.2/modules/iwgeom/iwgeom.mkf'
p905
(lp906
I1
a(dp907
asS'c:/marmalade/6.2/modules/iwgeom/h/IwGeomQuat.h'
p908
(lp909
I1
ag872
asS'c:/marmalade/6.2/modules/iwgeom/h/IwGeomMat2D.h'
p910
(lp911
I1
ag872
asS'c:/marmalade/6.2/modules/iwgeom/h/IwGeomFSphere.h'
p912
(lp913
I1
ag872
asS'c:/marmalade/6.2/modules/iwgeom/h/IwGeomSVec3.h'
p914
(lp915
I1
ag872
asS'c:/marmalade/6.2/modules/iwgeom/h/IwGeomSVec2.h'
p916
(lp917
I1
ag872
asS'c:/marmalade/6.2/modules/iwgeom/h/IwGeomSphere.h'
p918
(lp919
I1
ag872
asS'c:/marmalade/6.2/modules/iwgeom/h/IwGeomPlane.h'
p920
(lp921
I1
ag872
asS'c:/marmalade/6.2/modules/iwgeom/h/IwGeomFMat.h'
p922
(lp923
I1
ag872
asS'c:/marmalade/6.2/modules/iwgeom/h/IwGeomFVec2.h'
p924
(lp925
I1
ag872
asS'c:/marmalade/6.2/modules/iwgeom/h/IwGeomMat.h'
p926
(lp927
I1
ag872
asS'c:/marmalade/6.2/modules/iwgeom/h/IwGeomFQuat.h'
p928
(lp929
I1
ag872
asS'c:/marmalade/6.2/modules/iwgeom/h/IwGeomFMat2D.h'
p930
(lp931
I1
ag872
asS'c:/marmalade/6.2/modules/iwgeom/h/IwGeomVec.h'
p932
(lp933
I1
ag872
asS'c:/marmalade/6.2/modules/iwgeom/h/IwGeomVec3.h'
p934
(lp935
I1
ag872
assS'iwresmanager'
p936
(dp937
S'c:/marmalade/6.2/modules/iwresmanager/h/IwResSerialise.h'
p938
(lp939
I1
a(dp940
asS'c:/marmalade/6.2/modules/iwresmanager/h/IwResHandlerGROUP.h'
p941
(lp942
I1
ag940
asS'c:/marmalade/6.2/modules/iwresmanager/h/IwResManagerClass.h'
p943
(lp944
I1
ag940
asS'c:/marmalade/6.2/modules/iwresmanager/h/IwResHandlerImage.h'
p945
(lp946
I1
ag940
asS'c:/marmalade/6.2/modules/iwresmanager/docs/iwresmanager.config.txt'
p947
(lp948
I1
ag940
asS'c:/marmalade/6.2/modules/iwresmanager/h/IwResHandler.h'
p949
(lp950
I1
ag940
asS'c:/marmalade/6.2/modules/iwresmanager/iwresmanager.mkf'
p951
(lp952
I1
a(dp953
asS'c:/marmalade/6.2/modules/iwresmanager/h/IwResGroup.h'
p954
(lp955
I1
ag940
asS'c:/marmalade/6.2/modules/iwresmanager/h/IwResManager.h'
p956
(lp957
I1
ag940
asS'c:/marmalade/6.2/modules/iwresmanager/h/IwResHandlerITX.h'
p958
(lp959
I1
ag940
assS'iwgx'
p960
(dp961
S'c:/marmalade/6.2/modules/iwgx/h/IwGxFuncTable.h'
p962
(lp963
I1
a(dp964
asS'c:/marmalade/6.2/modules/iwgx/h/IwClip.inl'
p965
(lp966
I1
ag964
asS'c:/marmalade/6.2/modules/iwgx/h/IwGxTypes.h'
p967
(lp968
I1
ag964
asS'c:/marmalade/6.2/modules/iwgx/h/IwGxTransformSW.h'
p969
(lp970
I1
ag964
asS'c:/marmalade/6.2/modules/iwgx/docs/iwgx_public.defines.txt'
p971
(lp972
I1
ag964
asS'c:/marmalade/6.2/modules/iwgx/h/IwDebugPrim.h'
p973
(lp974
I1
ag964
asS'c:/marmalade/6.2/modules/iwgx/h/IwResHandlerMTL.h'
p975
(lp976
I1
ag964
asS'c:/marmalade/6.2/modules/iwgx/docs/iwgx.config.txt'
p977
(lp978
I1
ag964
asS'c:/marmalade/6.2/modules/iwgx/h/IwGxDebug.h'
p979
(lp980
I1
ag964
asS'c:/marmalade/6.2/modules/iwgx/h/IwTexture.h'
p981
(lp982
I1
ag964
asS'c:/marmalade/6.2/modules/iwgx/h/IwFColour.h'
p983
(lp984
I1
ag964
asS'c:/marmalade/6.2/modules/iwgx/h/IwGxError.h'
p985
(lp986
I1
ag964
asS'c:/marmalade/6.2/modules/iwgx/h/IwColour.h'
p987
(lp988
I1
ag964
asS'c:/marmalade/6.2/modules/iwgx/h/IwMaterial.h'
p989
(lp990
I1
ag964
asS'c:/marmalade/6.2/modules/iwgx/h/IwGxPrint.h'
p991
(lp992
I1
ag964
asS'c:/marmalade/6.2/modules/iwgx/h/IwTPage.h'
p993
(lp994
I1
ag964
asS'c:/marmalade/6.2/modules/iwgx/iwgx.mkf'
p995
(lp996
I1
a(dp997
asS'c:/marmalade/6.2/modules/iwgx/h/IwGxMetrics.h'
p998
(lp999
I1
ag964
asS'c:/marmalade/6.2/modules/iwgx/h/IwGxSurface.h'
p1000
(lp1001
I1
ag964
asS'c:/marmalade/6.2/modules/iwgx/h/IwGx.h'
p1002
(lp1003
I1
ag964
asS'c:/marmalade/6.2/modules/iwgx/h/IwGxShaderTechnique.h'
p1004
(lp1005
I1
ag964
asS'c:/marmalade/6.2/modules/iwgx/h/IwGxStream.h'
p1006
(lp1007
I1
ag964
asS'c:/marmalade/6.2/modules/iwgx/h/IwMatAnim.h'
p1008
(lp1009
I1
ag964
asS'c:/marmalade/6.2/modules/iwgx/h/IwClip.h'
p1010
(lp1011
I1
ag964
asS'c:/marmalade/6.2/modules/iwgx/h/IwGxState.h'
p1012
(lp1013
I1
ag964
assS'iwutil'
p1014
(dp1015
S'c:/marmalade/6.2/modules/iwutil/h/IwBuffer.h'
p1016
(lp1017
I1
a(dp1018
asS'c:/marmalade/6.2/modules/iwutil/h/IwResource.h'
p1019
(lp1020
I1
ag1018
asS'c:/marmalade/6.2/modules/iwutil/h/IwFile.h'
p1021
(lp1022
I1
ag1018
asS'c:/marmalade/6.2/modules/iwutil/docs/iwutil.config.txt'
p1023
(lp1024
I1
ag1018
asS'c:/marmalade/6.2/modules/iwutil/h/IwCore.h'
p1025
(lp1026
I1
ag1018
asS'c:/marmalade/6.2/modules/iwutil/h/IwOptimiseSpeed.h'
p1027
(lp1028
I1
ag1018
asS'c:/marmalade/6.2/modules/iwutil/h/IwSerialise.h'
p1029
(lp1030
I1
ag1018
asS'c:/marmalade/6.2/modules/iwutil/h/IwPath.h'
p1031
(lp1032
I1
ag1018
asS'c:/marmalade/6.2/modules/iwutil/h/IwImage.h'
p1033
(lp1034
I1
ag1018
asS'c:/marmalade/6.2/modules/iwutil/h/IwCopyingPtr.h'
p1035
(lp1036
I1
ag1018
asS'c:/marmalade/6.2/modules/iwutil/h/IwUtilInitTerm.h'
p1037
(lp1038
I1
ag1018
asS'c:/marmalade/6.2/modules/iwutil/h/IwOptimiseARM.h'
p1039
(lp1040
I1
ag1018
asS'c:/marmalade/6.2/modules/iwutil/h/IwMath.h'
p1041
(lp1042
I1
ag1018
asS'c:/marmalade/6.2/modules/iwutil/iwutil.mkf'
p1043
(lp1044
I1
a(dp1045
asS'c:/marmalade/6.2/modules/iwutil/h/IwUncopyable.h'
p1046
(lp1047
I1
ag1018
asS'c:/marmalade/6.2/modules/iwutil/h/IwDebug.h'
p1048
(lp1049
I1
ag1018
asS'c:/marmalade/6.2/modules/iwutil/h/IwSingleton.h'
p1050
(lp1051
I1
ag1018
asS'c:/marmalade/6.2/modules/iwutil/h/IwRandom.h'
p1052
(lp1053
I1
ag1018
asS'c:/marmalade/6.2/modules/iwutil/h/IwMemManagerDL.h'
p1054
(lp1055
I1
ag1018
asS'c:/marmalade/6.2/modules/iwutil/h/IwMemory.h'
p1056
(lp1057
I1
ag1018
asS'c:/marmalade/6.2/modules/iwutil/h/IwUtil.h'
p1058
(lp1059
I1
ag1018
asS'c:/marmalade/6.2/modules/iwutil/h/IwManagedList.h'
p1060
(lp1061
I1
ag1018
asS'c:/marmalade/6.2/modules/iwutil/h/IwMenu.h'
p1062
(lp1063
I1
ag1018
asS'c:/marmalade/6.2/modules/iwutil/h/IwArray.h'
p1064
(lp1065
I1
ag1018
asS'c:/marmalade/6.2/modules/iwutil/h/IwOptimiseSize.h'
p1066
(lp1067
I1
ag1018
asS'c:/marmalade/6.2/modules/iwutil/h/IwString.h'
p1068
(lp1069
I1
ag1018
asS'c:/marmalade/6.2/modules/iwutil/h/IwProfileMenu.h'
p1070
(lp1071
I1
ag1018
asS'c:/marmalade/6.2/modules/iwutil/h/IwKeymap.h'
p1072
(lp1073
I1
ag1018
asS'c:/marmalade/6.2/modules/iwutil/h/IwMemBucket.h'
p1074
(lp1075
I1
ag1018
asS'c:/marmalade/6.2/modules/iwutil/h/IwUTF8.h'
p1076
(lp1077
I1
ag1018
asS'c:/marmalade/6.2/modules/iwutil/h/IwRuntime.h'
p1078
(lp1079
I1
ag1018
asS'c:/marmalade/6.2/modules/iwutil/h/IwVariableBitField.h'
p1080
(lp1081
I1
ag1018
asS'c:/marmalade/6.2/modules/iwutil/h/IwOptimiseThumb.h'
p1082
(lp1083
I1
ag1018
asS'c:/marmalade/6.2/modules/iwutil/h/IwList.h'
p1084
(lp1085
I1
ag1018
asS'c:/marmalade/6.2/modules/iwutil/h/IwDivTable.h'
p1086
(lp1087
I1
ag1018
asS'c:/marmalade/6.2/modules/iwutil/h/IwMemBucketHelpers.h'
p1088
(lp1089
I1
ag1018
asS'c:/marmalade/6.2/modules/iwutil/h/IwClassFactory.h'
p1090
(lp1091
I1
ag1018
asS'c:/marmalade/6.2/modules/iwutil/h/IwAutoFile.h'
p1092
(lp1093
I1
ag1018
asS'c:/marmalade/6.2/modules/iwutil/h/IwAllocator.h'
p1094
(lp1095
I1
ag1018
asS'c:/marmalade/6.2/modules/iwutil/h/IwImageHelper.h'
p1096
(lp1097
I1
ag1018
asS'c:/marmalade/6.2/modules/iwutil/h/IwTextParserITX.h'
p1098
(lp1099
I1
ag1018
asS'c:/marmalade/6.2/modules/iwutil/h/IwTextParser.h'
p1100
(lp1101
I1
ag1018
asS'c:/marmalade/6.2/modules/iwutil/h/IwTextParseable.h'
p1102
(lp1103
I1
ag1018
asS'c:/marmalade/6.2/modules/iwutil/h/IwDivide.h'
p1104
(lp1105
I1
ag1018
asS'c:/marmalade/6.2/modules/iwutil/h/IwHashString.h'
p1106
(lp1107
I1
ag1018
asS'c:/marmalade/6.2/modules/iwutil/h/IwTypes.h'
p1108
(lp1109
I1
ag1018
asS'c:/marmalade/6.2/modules/iwutil/h/IwManaged.h'
p1110
(lp1111
I1
ag1018
asS'c:/marmalade/6.2/modules/iwutil/h/IwEvent.h'
p1112
(lp1113
I1
ag1018
asS'c:/marmalade/6.2/modules/iwutil/h/IwChar.h'
p1114
(lp1115
I1
ag1018
asS'c:/marmalade/6.2/modules/iwutil/h/IwFibre.h'
p1116
(lp1117
I1
ag1018
asssS'(zlib)'
p1118
(dp1119
Vc:/users/daniel/appdata/roaming/marmalade/packages/6.2.0/zlib_1.2.4/h/zconf.h
p1120
(lp1121
I1
a(dp1122
asVc:/users/daniel/appdata/roaming/marmalade/packages/6.2.0/zlib_1.2.4/h/zlib.h
p1123
(lp1124
I1
ag1122
asVc:/users/daniel/appdata/roaming/marmalade/packages/6.2.0/zlib_1.2.4/zlib.mkf
p1125
(lp1126
I1
a(dp1127
asssS'files'
p1128
(dp1129
S'IwGxFontPreparedData.h'
p1130
g236
(cmkb_main
File
p1131
g238
Ntp1132
Rp1133
(dp1134
S'flags'
p1135
g850
sS'group'
p1136
(lp1137
S"'Marmalade Studio'"
p1138
ag846
asg266
g858
sbsS'iterator'
p1139
g236
(g1131
g238
Ntp1140
Rp1141
(dp1142
g1135
(dp1143
sg1136
(lp1144
S"'Marmalade System (S3E)'"
p1145
aS'stdc headers'
p1146
aS'c++'
p1147
asg266
S'c:/marmalade/6.2/s3e/h/std/c++/iterator'
p1148
sbsS'IwGeomPlane.h'
p1149
g236
(g1131
g238
Ntp1150
Rp1151
(dp1152
g1135
g872
sg1136
(lp1153
S"'Marmalade Studio'"
p1154
ag868
asg266
g920
sbsS's3e.h'
p1155
g236
(g1131
g238
Ntp1156
Rp1157
(dp1158
g1135
g1143
sg1136
(lp1159
g1145
asg266
S'c:/marmalade/6.2/s3e/h/s3e.h'
p1160
sbsS'errno.h'
p1161
g236
(g1131
g238
Ntp1162
Rp1163
(dp1164
g1135
g1143
sg1136
(lp1165
g1145
aS'stdc headers'
p1166
asg266
S'c:/marmalade/6.2/s3e/h/std/errno.h'
p1167
sbsS'IwSingleton.h'
p1168
g236
(g1131
g238
Ntp1169
Rp1170
(dp1171
g1135
g1018
sg1136
(lp1172
S"'Marmalade Studio'"
p1173
ag1014
asg266
g1050
sbsS'dlfcn.h'
p1174
g236
(g1131
g238
Ntp1175
Rp1176
(dp1177
g1135
g1143
sg1136
g1165
sg266
S'c:/marmalade/6.2/s3e/h/std/dlfcn.h'
p1178
sbsS'stdio_streambuf'
p1179
g236
(g1131
g238
Ntp1180
Rp1181
(dp1182
g1135
g1143
sg1136
g1144
sg266
S'c:/marmalade/6.2/s3e/h/std/c++/stdio_streambuf'
p1183
sbsS'sched.h'
p1184
g236
(g1131
g238
Ntp1185
Rp1186
(dp1187
g1135
g1143
sg1136
g1165
sg266
S'c:/marmalade/6.2/s3e/h/std/sched.h'
p1188
sbsS'IwGeomFMat2D.h'
p1189
g236
(g1131
g238
Ntp1190
Rp1191
(dp1192
g1135
g872
sg1136
g1153
sg266
g930
sbsS's3eExt.h'
p1193
g236
(g1131
g238
Ntp1194
Rp1195
(dp1196
g1135
g1143
sg1136
g1159
sg266
S'c:/marmalade/6.2/s3e/h/s3eExt.h'
p1197
sbsS'grp.h'
p1198
g236
(g1131
g238
Ntp1199
Rp1200
(dp1201
g1135
g1143
sg1136
g1165
sg266
S'c:/marmalade/6.2/s3e/h/std/grp.h'
p1202
sbsS'list'
p1203
g236
(g1131
g238
Ntp1204
Rp1205
(dp1206
g1135
g1143
sg1136
g1144
sg266
S'c:/marmalade/6.2/s3e/h/std/c++/list'
p1207
sbsS'istream'
p1208
g236
(g1131
g238
Ntp1209
Rp1210
(dp1211
g1135
g1143
sg1136
g1144
sg266
S'c:/marmalade/6.2/s3e/h/std/c++/istream'
p1212
sbsVjpeglib.h
p1213
g236
(g1131
g238
Ntp1214
Rp1215
(dp1216
g1135
g773
sg1136
(lp1217
g769
asg266
g774
sbsS'iw2d_public.defines.txt'
p1218
g236
(g1131
g238
Ntp1219
Rp1220
(dp1221
g1135
g838
sg1136
(lp1222
S"'Marmalade Studio'"
p1223
ag834
asg266
g839
sbsS'iostream.h'
p1224
g236
(g1131
g238
Ntp1225
Rp1226
(dp1227
g1135
g1143
sg1136
g1144
sg266
S'c:/marmalade/6.2/s3e/h/std/c++/iostream.h'
p1228
sbsS'string'
p1229
g236
(g1131
g238
Ntp1230
Rp1231
(dp1232
g1135
g1143
sg1136
g1144
sg266
S'c:/marmalade/6.2/s3e/h/std/c++/string'
p1233
sbsS'IwMemory.h'
p1234
g236
(g1131
g238
Ntp1235
Rp1236
(dp1237
g1135
g1018
sg1136
g1172
sg266
g1056
sbsS'IwGL.h'
p1238
g236
(g1131
g238
Ntp1239
Rp1240
(dp1241
g1135
g826
sg1136
(lp1242
S"'Marmalade Studio'"
p1243
ag822
asg266
g829
sbsS'iw2d.config.txt'
p1244
g236
(g1131
g238
Ntp1245
Rp1246
(dp1247
g1135
g838
sg1136
g1222
sg266
g841
sbsS'iomanip'
p1248
g236
(g1131
g238
Ntp1249
Rp1250
(dp1251
g1135
g1143
sg1136
g1144
sg266
S'c:/marmalade/6.2/s3e/h/std/c++/iomanip'
p1252
sbsS'iwgeom.mkf'
p1253
g236
(g1131
g238
Ntp1254
Rp1255
(dp1256
g1135
g907
sg1136
g1153
sg266
g905
sbsS'IwGxError.h'
p1257
g236
(g1131
g238
Ntp1258
Rp1259
(dp1260
g1135
g964
sg1136
(lp1261
S"'Marmalade Studio'"
p1262
ag960
asg266
g985
sbsS'IwGeom.h'
p1263
g236
(g1131
g238
Ntp1264
Rp1265
(dp1266
g1135
g872
sg1136
g1153
sg266
g875
sbsS'IwGeomVec4.h'
p1267
g236
(g1131
g238
Ntp1268
Rp1269
(dp1270
g1135
g872
sg1136
g1153
sg266
g897
sbsS'dir.h'
p1271
g236
(g1131
g238
Ntp1272
Rp1273
(dp1274
g1135
g1143
sg1136
(lp1275
g1145
aS'stdc headers'
p1276
aS'sys'
p1277
asg266
S'c:/marmalade/6.2/s3e/h/std/sys/dir.h'
p1278
sbsS'locale.h'
p1279
g236
(g1131
g238
Ntp1280
Rp1281
(dp1282
g1135
g1143
sg1136
g1165
sg266
S'c:/marmalade/6.2/s3e/h/std/locale.h'
p1283
sbsS'vector'
p1284
g236
(g1131
g238
Ntp1285
Rp1286
(dp1287
g1135
g1143
sg1136
g1144
sg266
S'c:/marmalade/6.2/s3e/h/std/c++/vector'
p1288
sbsS'IwManaged.h'
p1289
g236
(g1131
g238
Ntp1290
Rp1291
(dp1292
g1135
g1018
sg1136
g1172
sg266
g1110
sbsS's3eCompass.h'
p1293
g236
(g1131
g238
Ntp1294
Rp1295
(dp1296
g1135
g1143
sg1136
g1159
sg266
S'c:/marmalade/6.2/s3e/h/s3eCompass.h'
p1297
sbsVcderror.h
p1298
g236
(g1131
g238
Ntp1299
Rp1300
(dp1301
g1135
g773
sg1136
g1217
sg266
g785
sbsS'climits'
p1302
g236
(g1131
g238
Ntp1303
Rp1304
(dp1305
g1135
g1143
sg1136
g1144
sg266
S'c:/marmalade/6.2/s3e/h/std/c++/climits'
p1306
sbsS's3eVibra.h'
p1307
g236
(g1131
g238
Ntp1308
Rp1309
(dp1310
g1135
g1143
sg1136
g1159
sg266
S'c:/marmalade/6.2/s3e/h/s3eVibra.h'
p1311
sbsVjversion.h
p1312
g236
(g1131
g238
Ntp1313
Rp1314
(dp1315
g1135
g773
sg1136
g1217
sg266
g795
sbsS'fnmatch.h'
p1316
g236
(g1131
g238
Ntp1317
Rp1318
(dp1319
g1135
g1143
sg1136
g1165
sg266
S'c:/marmalade/6.2/s3e/h/std/fnmatch.h'
p1320
sbsS'IwGxState.h'
p1321
g236
(g1131
g238
Ntp1322
Rp1323
(dp1324
g1135
g964
sg1136
g1261
sg266
g1012
sbsS's3eAudio.h'
p1325
g236
(g1131
g238
Ntp1326
Rp1327
(dp1328
g1135
g1143
sg1136
g1159
sg266
S'c:/marmalade/6.2/s3e/h/s3eAudio.h'
p1329
sbsS's3eSurface.h'
p1330
g236
(g1131
g238
Ntp1331
Rp1332
(dp1333
g1135
g1143
sg1136
g1159
sg266
S'c:/marmalade/6.2/s3e/h/s3eSurface.h'
p1334
sbsS'new'
p1335
g236
(g1131
g238
Ntp1336
Rp1337
(dp1338
g1135
g1143
sg1136
g1144
sg266
S'c:/marmalade/6.2/s3e/h/std/c++/new'
p1339
sbsS's3eWindow.h'
p1340
g236
(g1131
g238
Ntp1341
Rp1342
(dp1343
g1135
g1143
sg1136
(lp1344
g1145
aS'Extensions'
p1345
asg266
S'c:/marmalade/6.2/s3e/h/ext/s3eWindow.h'
p1346
sbsS'IwBuffer.h'
p1347
g236
(g1131
g238
Ntp1348
Rp1349
(dp1350
g1135
g1018
sg1136
g1172
sg266
g1016
sbsS's3eOSExec.h'
p1351
g236
(g1131
g238
Ntp1352
Rp1353
(dp1354
g1135
g1143
sg1136
g1344
sg266
S'c:/marmalade/6.2/s3e/h/ext/s3eOSExec.h'
p1355
sbsS'IwGxTransformSW.h'
p1356
g236
(g1131
g238
Ntp1357
Rp1358
(dp1359
g1135
g964
sg1136
g1261
sg266
g969
sbsS'unistd.h'
p1360
g236
(g1131
g238
Ntp1361
Rp1362
(dp1363
g1135
g1143
sg1136
g1165
sg266
S'c:/marmalade/6.2/s3e/h/std/unistd.h'
p1364
sbsS'iwgxfont.config.txt'
p1365
g236
(g1131
g238
Ntp1366
Rp1367
(dp1368
g1135
g850
sg1136
g1137
sg266
g864
sbsS'gl2platform.h'
p1369
g236
(g1131
g238
Ntp1370
Rp1371
(dp1372
g1135
g1143
sg1136
(lp1373
g1145
aS'GL'
p1374
aS'GLES 2.0'
p1375
asg266
S'c:/marmalade/6.2/s3e/h/GLES2/gl2platform.h'
p1376
sbsS'IwResManagerClass.h'
p1377
g236
(g1131
g238
Ntp1378
Rp1379
(dp1380
g1135
g940
sg1136
(lp1381
g820
ag936
asg266
g943
sbsS'queue'
p1382
g236
(g1131
g238
Ntp1383
Rp1384
(dp1385
g1135
g1143
sg1136
g1144
sg266
S'c:/marmalade/6.2/s3e/h/std/c++/queue'
p1386
sbsS'time_1.h'
p1387
g236
(g1131
g238
Ntp1388
Rp1389
(dp1390
g1135
g1143
sg1136
g1275
sg266
S'c:/marmalade/6.2/s3e/h/std/sys/time.h'
p1391
sbsS'Iw2D.h'
p1392
g236
(g1131
g238
Ntp1393
Rp1394
(dp1395
g1135
g838
sg1136
g1222
sg266
g836
sbsS'IwGeomVec2.h'
p1396
g236
(g1131
g238
Ntp1397
Rp1398
(dp1399
g1135
g872
sg1136
g1153
sg266
g879
sbsS's3eDevice.h'
p1400
g236
(g1131
g238
Ntp1401
Rp1402
(dp1403
g1135
g1143
sg1136
g1159
sg266
S'c:/marmalade/6.2/s3e/h/s3eDevice.h'
p1404
sbsS'malloc.h'
p1405
g236
(g1131
g238
Ntp1406
Rp1407
(dp1408
g1135
g1143
sg1136
g1165
sg266
S'c:/marmalade/6.2/s3e/h/std/malloc.h'
p1409
sbsS'stdarg.h'
p1410
g236
(g1131
g238
Ntp1411
Rp1412
(dp1413
g1135
g1143
sg1136
g1165
sg266
S'c:/marmalade/6.2/s3e/h/std/stdarg.h'
p1414
sbsS'IwGeomCore.h'
p1415
g236
(g1131
g238
Ntp1416
Rp1417
(dp1418
g1135
g872
sg1136
g1153
sg266
g893
sbsS'endian.h'
p1419
g236
(g1131
g238
Ntp1420
Rp1421
(dp1422
g1135
g1143
sg1136
g1165
sg266
S'c:/marmalade/6.2/s3e/h/std/endian.h'
p1423
sbsS'glob.h'
p1424
g236
(g1131
g238
Ntp1425
Rp1426
(dp1427
g1135
g1143
sg1136
g1165
sg266
S'c:/marmalade/6.2/s3e/h/std/glob.h'
p1428
sbsS'fstream'
p1429
g236
(g1131
g238
Ntp1430
Rp1431
(dp1432
g1135
g1143
sg1136
g1144
sg266
S'c:/marmalade/6.2/s3e/h/std/c++/fstream'
p1433
sbsS's3eCamera.h'
p1434
g236
(g1131
g238
Ntp1435
Rp1436
(dp1437
g1135
g1143
sg1136
g1159
sg266
S'c:/marmalade/6.2/s3e/h/s3eCamera.h'
p1438
sbsVjconfig.h
p1439
g236
(g1131
g238
Ntp1440
Rp1441
(dp1442
g1135
g773
sg1136
g1217
sg266
g791
sbsS'memory'
p1443
g236
(g1131
g238
Ntp1444
Rp1445
(dp1446
g1135
g1143
sg1136
g1144
sg266
S'c:/marmalade/6.2/s3e/h/std/c++/memory'
p1447
sbsS'egl.h'
p1448
g236
(g1131
g238
Ntp1449
Rp1450
(dp1451
g1135
g1143
sg1136
(lp1452
g1145
aS'GL'
p1453
aS'EGL'
p1454
asg266
S'c:/marmalade/6.2/s3e/h/EGL/egl.h'
p1455
sbsS'IwClip.inl'
p1456
g236
(g1131
g238
Ntp1457
Rp1458
(dp1459
g1135
g964
sg1136
g1261
sg266
g965
sbsS'IwMemManagerDL.h'
p1460
g236
(g1131
g238
Ntp1461
Rp1462
(dp1463
g1135
g1018
sg1136
g1172
sg266
g1054
sbsS'deque'
p1464
g236
(g1131
g238
Ntp1465
Rp1466
(dp1467
g1135
g1143
sg1136
g1144
sg266
S'c:/marmalade/6.2/s3e/h/std/c++/deque'
p1468
sbsS'IwString.h'
p1469
g236
(g1131
g238
Ntp1470
Rp1471
(dp1472
g1135
g1018
sg1136
g1172
sg266
g1068
sbsS'cctype'
p1473
g236
(g1131
g238
Ntp1474
Rp1475
(dp1476
g1135
g1143
sg1136
g1144
sg266
S'c:/marmalade/6.2/s3e/h/std/c++/cctype'
p1477
sbsS'iwutil.mkf'
p1478
g236
(g1131
g238
Ntp1479
Rp1480
(dp1481
g1135
g1045
sg1136
g1172
sg266
g1043
sbsS'csignal'
p1482
g236
(g1131
g238
Ntp1483
Rp1484
(dp1485
g1135
g1143
sg1136
g1144
sg266
S'c:/marmalade/6.2/s3e/h/std/c++/csignal'
p1486
sbsS'float.h'
p1487
g236
(g1131
g238
Ntp1488
Rp1489
(dp1490
g1135
g1143
sg1136
g1165
sg266
S'c:/marmalade/6.2/s3e/h/std/float.h'
p1491
sbsS'pthread_alloc'
p1492
g236
(g1131
g238
Ntp1493
Rp1494
(dp1495
g1135
g1143
sg1136
g1144
sg266
S'c:/marmalade/6.2/s3e/h/std/c++/pthread_alloc'
p1496
sbsS'getopt.h'
p1497
g236
(g1131
g238
Ntp1498
Rp1499
(dp1500
g1135
g1143
sg1136
g1165
sg266
S'c:/marmalade/6.2/s3e/h/std/getopt.h'
p1501
sbsS'IwOptimiseARM.h'
p1502
g236
(g1131
g238
Ntp1503
Rp1504
(dp1505
g1135
g1018
sg1136
g1172
sg266
g1039
sbsS'times.h'
p1506
g236
(g1131
g238
Ntp1507
Rp1508
(dp1509
g1135
g1143
sg1136
g1275
sg266
S'c:/marmalade/6.2/s3e/h/std/sys/times.h'
p1510
sbsS'IwGeomFSphere.h'
p1511
g236
(g1131
g238
Ntp1512
Rp1513
(dp1514
g1135
g872
sg1136
g1153
sg266
g912
sbsS'IwTypes.h'
p1515
g236
(g1131
g238
Ntp1516
Rp1517
(dp1518
g1135
g1018
sg1136
g1172
sg266
g1108
sbsS'IwGxMetrics.h'
p1519
g236
(g1131
g238
Ntp1520
Rp1521
(dp1522
g1135
g964
sg1136
g1261
sg266
g998
sbsS's3eCompression.h'
p1523
g236
(g1131
g238
Ntp1524
Rp1525
(dp1526
g1135
g1143
sg1136
g1159
sg266
S'c:/marmalade/6.2/s3e/h/s3eCompression.h'
p1527
sbsS'langinfo.h'
p1528
g236
(g1131
g238
Ntp1529
Rp1530
(dp1531
g1135
g1143
sg1136
g1165
sg266
S'c:/marmalade/6.2/s3e/h/std/langinfo.h'
p1532
sbsS's3edebugHeap.h'
p1533
g236
(g1131
g238
Ntp1534
Rp1535
(dp1536
g1135
g1143
sg1136
g1344
sg266
S'c:/marmalade/6.2/s3e/h/ext/s3edebugHeap.h'
p1537
sbsS'AirplayVersion.h'
p1538
g236
(g1131
g238
Ntp1539
Rp1540
(dp1541
g1135
g1143
sg1136
g1159
sg266
S'c:/marmalade/6.2/s3e/h/AirplayVersion.h'
p1542
sbsS'gl2extimg.h'
p1543
g236
(g1131
g238
Ntp1544
Rp1545
(dp1546
g1135
g1143
sg1136
g1373
sg266
S'c:/marmalade/6.2/s3e/h/GLES2/gl2extimg.h'
p1547
sbsS'app.config.txt'
p1548
g236
(g1131
g238
Ntp1549
Rp1550
(dp1551
g1135
(dp1552
sg1136
g4
sg266
S'c:/Users/Daniel/Documents/DrawSprite_Iw2D/DrawSprite_Iw2D/data/app.config.txt'
p1553
sbsS'IwGeomSqrt.h'
p1554
g236
(g1131
g238
Ntp1555
Rp1556
(dp1557
g1135
g872
sg1136
g1153
sg266
g887
sbsVtiniconv_int.h
p1558
g236
(g1131
g238
Ntp1559
Rp1560
(dp1561
g1135
g807
sg1136
(lp1562
g803
asg266
g811
sbsS'syslog.h'
p1563
g236
(g1131
g238
Ntp1564
Rp1565
(dp1566
g1135
g1143
sg1136
g1165
sg266
S'c:/marmalade/6.2/s3e/h/std/syslog.h'
p1567
sbsS'IwGxFontTypes.h'
p1568
g236
(g1131
g238
Ntp1569
Rp1570
(dp1571
g1135
g850
sg1136
g1137
sg266
g862
sbsS'IwGeomFIntersect.h'
p1572
g236
(g1131
g238
Ntp1573
Rp1574
(dp1575
g1135
g872
sg1136
g1153
sg266
g889
sbsS'hash_map'
p1576
g236
(g1131
g238
Ntp1577
Rp1578
(dp1579
g1135
g1143
sg1136
g1144
sg266
S'c:/marmalade/6.2/s3e/h/std/c++/hash_map'
p1580
sbsS's3e.mkf'
p1581
g236
(g1131
g238
Ntp1582
Rp1583
(dp1584
g1135
(dp1585
sg1136
g1159
sg266
S'c:/marmalade/6.2/s3e/s3e.mkf'
p1586
sbsS's3eOSReadString.h'
p1587
g236
(g1131
g238
Ntp1588
Rp1589
(dp1590
g1135
g1143
sg1136
g1344
sg266
S'c:/marmalade/6.2/s3e/h/ext/s3eOSReadString.h'
p1591
sbsS'map'
p1592
g236
(g1131
g238
Ntp1593
Rp1594
(dp1595
g1135
g1143
sg1136
g1144
sg266
S'c:/marmalade/6.2/s3e/h/std/c++/map'
p1596
sbsS'IwOptimiseSpeed.h'
p1597
g236
(g1131
g238
Ntp1598
Rp1599
(dp1600
g1135
g1018
sg1136
g1172
sg266
g1027
sbsS'msl_string.h'
p1601
g236
(g1131
g238
Ntp1602
Rp1603
(dp1604
g1135
g1143
sg1136
g1144
sg266
S'c:/marmalade/6.2/s3e/h/std/c++/msl_string.h'
p1605
sbsS'select.h'
p1606
g236
(g1131
g238
Ntp1607
Rp1608
(dp1609
g1135
g1143
sg1136
g1275
sg266
S'c:/marmalade/6.2/s3e/h/std/sys/select.h'
p1610
sbsVzlib.mkf
p1611
g236
(g1131
g238
Ntp1612
Rp1613
(dp1614
g1135
g1127
sg1136
(lp1615
g1118
asg266
g1125
sbsS'signal.h'
p1616
g236
(g1131
g238
Ntp1617
Rp1618
(dp1619
g1135
g1143
sg1136
g1165
sg266
S'c:/marmalade/6.2/s3e/h/std/signal.h'
p1620
sbsS'sigcontext.h'
p1621
g236
(g1131
g238
Ntp1622
Rp1623
(dp1624
g1135
g1143
sg1136
g1165
sg266
S'c:/marmalade/6.2/s3e/h/std/sigcontext.h'
p1625
sbsVlibpng.mkf
p1626
g236
(g1131
g238
Ntp1627
Rp1628
(dp1629
g1135
g763
sg1136
(lp1630
g759
asg266
g761
sbsS's3eClipboard.h'
p1631
g236
(g1131
g238
Ntp1632
Rp1633
(dp1634
g1135
g1143
sg1136
g1159
sg266
S'c:/marmalade/6.2/s3e/h/s3eClipboard.h'
p1635
sbsS'IwGxFuncTable.h'
p1636
g236
(g1131
g238
Ntp1637
Rp1638
(dp1639
g1135
g964
sg1136
g1261
sg266
g962
sbsS'IwResHandlerGROUP.h'
p1640
g236
(g1131
g238
Ntp1641
Rp1642
(dp1643
g1135
g940
sg1136
g1381
sg266
g941
sbsS's3eDebug.h'
p1644
g236
(g1131
g238
Ntp1645
Rp1646
(dp1647
g1135
g1143
sg1136
g1159
sg266
S'c:/marmalade/6.2/s3e/h/s3eDebug.h'
p1648
sbsS'socket.h'
p1649
g236
(g1131
g238
Ntp1650
Rp1651
(dp1652
g1135
g1143
sg1136
g1275
sg266
S'c:/marmalade/6.2/s3e/h/std/sys/socket.h'
p1653
sbsS'glext.h'
p1654
g236
(g1131
g238
Ntp1655
Rp1656
(dp1657
g1135
g1143
sg1136
(lp1658
g1145
aS'GL'
p1659
aS'GLES 1.x'
p1660
asg266
S'c:/marmalade/6.2/s3e/h/GLES/glext.h'
p1661
sbsS'typeinfo.h'
p1662
g236
(g1131
g238
Ntp1663
Rp1664
(dp1665
g1135
g1143
sg1136
g1144
sg266
S'c:/marmalade/6.2/s3e/h/std/c++/typeinfo.h'
p1666
sbsS'typeinfo'
p1667
g236
(g1131
g238
Ntp1668
Rp1669
(dp1670
g1135
g1143
sg1136
g1144
sg266
S'c:/marmalade/6.2/s3e/h/std/c++/typeinfo'
p1671
sbsS'fstream.h'
p1672
g236
(g1131
g238
Ntp1673
Rp1674
(dp1675
g1135
g1143
sg1136
g1144
sg266
S'c:/marmalade/6.2/s3e/h/std/c++/fstream.h'
p1676
sbsS's3ePointer.h'
p1677
g236
(g1131
g238
Ntp1678
Rp1679
(dp1680
g1135
g1143
sg1136
g1159
sg266
S'c:/marmalade/6.2/s3e/h/s3ePointer.h'
p1681
sbsS'iw2d.mkf'
p1682
g236
(g1131
g238
Ntp1683
Rp1684
(dp1685
g1135
g845
sg1136
g1222
sg266
g843
sbsS's3eGL.h'
p1686
g236
(g1131
g238
Ntp1687
Rp1688
(dp1689
g1135
g1143
sg1136
g1159
sg266
S'c:/marmalade/6.2/s3e/h/s3eGL.h'
p1690
sbsS'IwGeomFVec2.h'
p1691
g236
(g1131
g238
Ntp1692
Rp1693
(dp1694
g1135
g872
sg1136
g1153
sg266
g924
sbsS'IwGeomSVec4.h'
p1695
g236
(g1131
g238
Ntp1696
Rp1697
(dp1698
g1135
g872
sg1136
g1153
sg266
g891
sbsS'poll.h'
p1699
g236
(g1131
g238
Ntp1700
Rp1701
(dp1702
g1135
g1143
sg1136
g1165
sg266
S'c:/marmalade/6.2/s3e/h/std/poll.h'
p1703
sbsS'IwMatAnim.h'
p1704
g236
(g1131
g238
Ntp1705
Rp1706
(dp1707
g1135
g964
sg1136
g1261
sg266
g1008
sbsS'IwGeomFVec4.h'
p1708
g236
(g1131
g238
Ntp1709
Rp1710
(dp1711
g1135
g872
sg1136
g1153
sg266
g877
sbsS'IwGx.h'
p1712
g236
(g1131
g238
Ntp1713
Rp1714
(dp1715
g1135
g964
sg1136
g1261
sg266
g1002
sbsS'valarray'
p1716
g236
(g1131
g238
Ntp1717
Rp1718
(dp1719
g1135
g1143
sg1136
g1144
sg266
S'c:/marmalade/6.2/s3e/h/std/c++/valarray'
p1720
sbsS'iosfwd'
p1721
g236
(g1131
g238
Ntp1722
Rp1723
(dp1724
g1135
g1143
sg1136
g1144
sg266
S'c:/marmalade/6.2/s3e/h/std/c++/iosfwd'
p1725
sbsS'gl2.h'
p1726
g236
(g1131
g238
Ntp1727
Rp1728
(dp1729
g1135
g1143
sg1136
g1373
sg266
S'c:/marmalade/6.2/s3e/h/GLES2/gl2.h'
p1730
sbsS'IwManagedList.h'
p1731
g236
(g1131
g238
Ntp1732
Rp1733
(dp1734
g1135
g1018
sg1136
g1172
sg266
g1060
sbsS'stdiostream.h'
p1735
g236
(g1131
g238
Ntp1736
Rp1737
(dp1738
g1135
g1143
sg1136
g1144
sg266
S'c:/marmalade/6.2/s3e/h/std/c++/stdiostream.h'
p1739
sbsS'mem.h'
p1740
g236
(g1131
g238
Ntp1741
Rp1742
(dp1743
g1135
g1143
sg1136
g1144
sg266
S'c:/marmalade/6.2/s3e/h/std/c++/mem.h'
p1744
sbsVjerror.h
p1745
g236
(g1131
g238
Ntp1746
Rp1747
(dp1748
g1135
g773
sg1136
g1217
sg266
g778
sbsVzconf.h
p1749
g236
(g1131
g238
Ntp1750
Rp1751
(dp1752
g1135
g1122
sg1136
g1615
sg266
g1120
sbsS's3e.config.txt'
p1753
g236
(g1131
g238
Ntp1754
Rp1755
(dp1756
g1135
g1143
sg1136
g1159
sg266
S'c:/marmalade/6.2/s3e/s3e.config.txt'
p1757
sbsS'numeric'
p1758
g236
(g1131
g238
Ntp1759
Rp1760
(dp1761
g1135
g1143
sg1136
g1144
sg266
S'c:/marmalade/6.2/s3e/h/std/c++/numeric'
p1762
sbsS'utime.h'
p1763
g236
(g1131
g238
Ntp1764
Rp1765
(dp1766
g1135
g1143
sg1136
g1165
sg266
S'c:/marmalade/6.2/s3e/h/std/utime.h'
p1767
sbsVjdhuff.h
p1768
g236
(g1131
g238
Ntp1769
Rp1770
(dp1771
g1135
g773
sg1136
g1217
sg266
g783
sbsS'IwGxStream.h'
p1772
g236
(g1131
g238
Ntp1773
Rp1774
(dp1775
g1135
g964
sg1136
g1261
sg266
g1006
sbsS'IwImage.h'
p1776
g236
(g1131
g238
Ntp1777
Rp1778
(dp1779
g1135
g1018
sg1136
g1172
sg266
g1033
sbsS's3eImagePicker.h'
p1780
g236
(g1131
g238
Ntp1781
Rp1782
(dp1783
g1135
g1143
sg1136
g1344
sg266
S'c:/marmalade/6.2/s3e/h/ext/s3eImagePicker.h'
p1784
sbsS'IwTextParserITX.h'
p1785
g236
(g1131
g238
Ntp1786
Rp1787
(dp1788
g1135
g1018
sg1136
g1172
sg266
g1098
sbsS'stdlib.h'
p1789
g236
(g1131
g238
Ntp1790
Rp1791
(dp1792
g1135
g1143
sg1136
g1165
sg266
S'c:/marmalade/6.2/s3e/h/std/stdlib.h'
p1793
sbsS'IwCopyingPtr.h'
p1794
g236
(g1131
g238
Ntp1795
Rp1796
(dp1797
g1135
g1018
sg1136
g1172
sg266
g1035
sbsS'iostream'
p1798
g236
(g1131
g238
Ntp1799
Rp1800
(dp1801
g1135
g1143
sg1136
g1144
sg266
S'c:/marmalade/6.2/s3e/h/std/c++/iostream'
p1802
sbsVpng.h
p1803
g236
(g1131
g238
Ntp1804
Rp1805
(dp1806
g1135
g766
sg1136
g1630
sg266
g764
sbsS'stddef.h'
p1807
g236
(g1131
g238
Ntp1808
Rp1809
(dp1810
g1135
g1143
sg1136
g1165
sg266
S'c:/marmalade/6.2/s3e/h/std/stddef.h'
p1811
sbsS'setjmp_win32.h'
p1812
g236
(g1131
g238
Ntp1813
Rp1814
(dp1815
g1135
g1143
sg1136
g1165
sg266
S'c:/marmalade/6.2/s3e/h/std/setjmp_win32.h'
p1816
sbsS'IwGxPrint.h'
p1817
g236
(g1131
g238
Ntp1818
Rp1819
(dp1820
g1135
g964
sg1136
g1261
sg266
g991
sbsS'IwGeomSVec2.h'
p1821
g236
(g1131
g238
Ntp1822
Rp1823
(dp1824
g1135
g872
sg1136
g1153
sg266
g916
sbsS'streambuf.h'
p1825
g236
(g1131
g238
Ntp1826
Rp1827
(dp1828
g1135
g1143
sg1136
g1144
sg266
S'c:/marmalade/6.2/s3e/h/std/c++/streambuf.h'
p1829
sbsS'IwGeomFPlane.h'
p1830
g236
(g1131
g238
Ntp1831
Rp1832
(dp1833
g1135
g872
sg1136
g1153
sg266
g899
sbsS'wchar.h'
p1834
g236
(g1131
g238
Ntp1835
Rp1836
(dp1837
g1135
g1143
sg1136
g1165
sg266
S'c:/marmalade/6.2/s3e/h/std/wchar.h'
p1838
sbsS's3eCameraCapture.h'
p1839
g236
(g1131
g238
Ntp1840
Rp1841
(dp1842
g1135
g1143
sg1136
g1344
sg266
S'c:/marmalade/6.2/s3e/h/ext/s3eCameraCapture.h'
p1843
sbsS'eglext.h'
p1844
g236
(g1131
g238
Ntp1845
Rp1846
(dp1847
g1135
g1143
sg1136
g1452
sg266
S'c:/marmalade/6.2/s3e/h/EGL/eglext.h'
p1848
sbsS'IwResHandlerImage.h'
p1849
g236
(g1131
g238
Ntp1850
Rp1851
(dp1852
g1135
g940
sg1136
g1381
sg266
g945
sbsS'strstream.h'
p1853
g236
(g1131
g238
Ntp1854
Rp1855
(dp1856
g1135
g1143
sg1136
g1144
sg266
S'c:/marmalade/6.2/s3e/h/std/c++/strstream.h'
p1857
sbsVtiniconv.h
p1858
g236
(g1131
g238
Ntp1859
Rp1860
(dp1861
g1135
g807
sg1136
g1562
sg266
g805
sbsS'IwGLExt.h'
p1862
g236
(g1131
g238
Ntp1863
Rp1864
(dp1865
g1135
g826
sg1136
g1242
sg266
g824
sbsS'app.icf'
p1866
g236
(g1131
g238
Ntp1867
Rp1868
(dp1869
g1135
(dp1870
sg1136
g4
sg266
S'c:/Users/Daniel/Documents/DrawSprite_Iw2D/DrawSprite_Iw2D/data/app.icf'
p1871
sbsS'IwClassFactory.h'
p1872
g236
(g1131
g238
Ntp1873
Rp1874
(dp1875
g1135
g1018
sg1136
g1172
sg266
g1090
sbsS'file.h'
p1876
g236
(g1131
g238
Ntp1877
Rp1878
(dp1879
g1135
g1143
sg1136
g1275
sg266
S'c:/marmalade/6.2/s3e/h/std/sys/file.h'
p1880
sbsS'cstring'
p1881
g236
(g1131
g238
Ntp1882
Rp1883
(dp1884
g1135
g1143
sg1136
g1144
sg266
S'c:/marmalade/6.2/s3e/h/std/c++/cstring'
p1885
sbsS'iwutil.config.txt'
p1886
g236
(g1131
g238
Ntp1887
Rp1888
(dp1889
g1135
g1018
sg1136
g1172
sg266
g1023
sbsS's3eSMS.h'
p1890
g236
(g1131
g238
Ntp1891
Rp1892
(dp1893
g1135
g1143
sg1136
g1344
sg266
S'c:/marmalade/6.2/s3e/h/ext/s3eSMS.h'
p1894
sbsS'limits.h'
p1895
g236
(g1131
g238
Ntp1896
Rp1897
(dp1898
g1135
g1143
sg1136
g1165
sg266
S'c:/marmalade/6.2/s3e/h/std/limits.h'
p1899
sbsS'iwgl.config.txt'
p1900
g236
(g1131
g238
Ntp1901
Rp1902
(dp1903
g1135
g826
sg1136
g1242
sg266
g827
sbsS'iwgx_public.defines.txt'
p1904
g236
(g1131
g238
Ntp1905
Rp1906
(dp1907
g1135
g964
sg1136
g1261
sg266
g971
sbsS'IwMaterial.h'
p1908
g236
(g1131
g238
Ntp1909
Rp1910
(dp1911
g1135
g964
sg1136
g1261
sg266
g989
sbsS'IwGxSurface.h'
p1912
g236
(g1131
g238
Ntp1913
Rp1914
(dp1915
g1135
g964
sg1136
g1261
sg266
g1000
sbsS's3eSocket.h'
p1916
g236
(g1131
g238
Ntp1917
Rp1918
(dp1919
g1135
g1143
sg1136
g1159
sg266
S'c:/marmalade/6.2/s3e/h/s3eSocket.h'
p1920
sbsS'IwAutoFile.h'
p1921
g236
(g1131
g238
Ntp1922
Rp1923
(dp1924
g1135
g1018
sg1136
g1172
sg266
g1092
sbsS'ipc.h'
p1925
g236
(g1131
g238
Ntp1926
Rp1927
(dp1928
g1135
g1143
sg1136
g1275
sg266
S'c:/marmalade/6.2/s3e/h/std/sys/ipc.h'
p1929
sbsS'poll_1.h'
p1930
g236
(g1131
g238
Ntp1931
Rp1932
(dp1933
g1135
g1143
sg1136
g1275
sg266
S'c:/marmalade/6.2/s3e/h/std/sys/poll.h'
p1934
sbsS's3eThread.h'
p1935
g236
(g1131
g238
Ntp1936
Rp1937
(dp1938
g1135
g1143
sg1136
g1159
sg266
S'c:/marmalade/6.2/s3e/h/s3eThread.h'
p1939
sbsS'ucontext.h'
p1940
g236
(g1131
g238
Ntp1941
Rp1942
(dp1943
g1135
g1143
sg1136
g1165
sg266
S'c:/marmalade/6.2/s3e/h/std/ucontext.h'
p1944
sbsS'time.h'
p1945
g236
(g1131
g238
Ntp1946
Rp1947
(dp1948
g1135
g1143
sg1136
g1165
sg266
S'c:/marmalade/6.2/s3e/h/std/time.h'
p1949
sbsVjchuff.h
p1950
g236
(g1131
g238
Ntp1951
Rp1952
(dp1953
g1135
g773
sg1136
g1217
sg266
g799
sbsS's3eSoundRecord.h'
p1954
g236
(g1131
g238
Ntp1955
Rp1956
(dp1957
g1135
g1143
sg1136
g1159
sg266
S'c:/marmalade/6.2/s3e/h/s3eSoundRecord.h'
p1958
sbsS'IwFibre.h'
p1959
g236
(g1131
g238
Ntp1960
Rp1961
(dp1962
g1135
g1018
sg1136
g1172
sg266
g1116
sbsS's3eVersion.h'
p1963
g236
(g1131
g238
Ntp1964
Rp1965
(dp1966
g1135
g1143
sg1136
g1159
sg266
S'c:/marmalade/6.2/s3e/h/s3eVersion.h'
p1967
sbsS'IwGxFontGlyph.h'
p1968
g236
(g1131
g238
Ntp1969
Rp1970
(dp1971
g1135
g850
sg1136
g1137
sg266
g856
sbsS's3eTypes.h'
p1972
g236
(g1131
g238
Ntp1973
Rp1974
(dp1975
g1135
g1143
sg1136
g1159
sg266
S'c:/marmalade/6.2/s3e/h/s3eTypes.h'
p1976
sbsS'signal_2.h'
p1977
g236
(g1131
g238
Ntp1978
Rp1979
(dp1980
g1135
g1143
sg1136
g1144
sg266
S'c:/marmalade/6.2/s3e/h/std/c++/signal.h'
p1981
sbsS'termios.h'
p1982
g236
(g1131
g238
Ntp1983
Rp1984
(dp1985
g1135
g1143
sg1136
g1165
sg266
S'c:/marmalade/6.2/s3e/h/std/termios.h'
p1986
sbsS'slist'
p1987
g236
(g1131
g238
Ntp1988
Rp1989
(dp1990
g1135
g1143
sg1136
g1144
sg266
S'c:/marmalade/6.2/s3e/h/std/c++/slist'
p1991
sbsS'cstdlib'
p1992
g236
(g1131
g238
Ntp1993
Rp1994
(dp1995
g1135
g1143
sg1136
g1144
sg266
S'c:/marmalade/6.2/s3e/h/std/c++/cstdlib'
p1996
sbsS's3eLocation.h'
p1997
g236
(g1131
g238
Ntp1998
Rp1999
(dp2000
g1135
g1143
sg1136
g1159
sg266
S'c:/marmalade/6.2/s3e/h/s3eLocation.h'
p2001
sbsS'IwMemBucketHelpers.h'
p2002
g236
(g1131
g238
Ntp2003
Rp2004
(dp2005
g1135
g1018
sg1136
g1172
sg266
g1088
sbsS's3eHash.h'
p2006
g236
(g1131
g238
Ntp2007
Rp2008
(dp2009
g1135
g1143
sg1136
g1159
sg266
S'c:/marmalade/6.2/s3e/h/s3eHash.h'
p2010
sbsS'IwGeomFMat.h'
p2011
g236
(g1131
g238
Ntp2012
Rp2013
(dp2014
g1135
g872
sg1136
g1153
sg266
g922
sbsS'type_traits.h'
p2015
g236
(g1131
g238
Ntp2016
Rp2017
(dp2018
g1135
g1143
sg1136
g1144
sg266
S'c:/marmalade/6.2/s3e/h/std/c++/type_traits.h'
p2019
sbsS'IwMenu.h'
p2020
g236
(g1131
g238
Ntp2021
Rp2022
(dp2023
g1135
g1018
sg1136
g1172
sg266
g1062
sbsS'IwResHandlerITX.h'
p2024
g236
(g1131
g238
Ntp2025
Rp2026
(dp2027
g1135
g940
sg1136
g1381
sg266
g958
sbsS'IwArray.h'
p2028
g236
(g1131
g238
Ntp2029
Rp2030
(dp2031
g1135
g1018
sg1136
g1172
sg266
g1064
sbsS'IwUTF8.h'
p2032
g236
(g1131
g238
Ntp2033
Rp2034
(dp2035
g1135
g1018
sg1136
g1172
sg266
g1076
sbsS'math_rvct.h'
p2036
g236
(g1131
g238
Ntp2037
Rp2038
(dp2039
g1135
g1143
sg1136
g1165
sg266
S'c:/marmalade/6.2/s3e/h/std/math_rvct.h'
p2040
sbsS'IwUtil.h'
p2041
g236
(g1131
g238
Ntp2042
Rp2043
(dp2044
g1135
g1018
sg1136
g1172
sg266
g1058
sbsS'IwGeomVec3.h'
p2045
g236
(g1131
g238
Ntp2046
Rp2047
(dp2048
g1135
g872
sg1136
g1153
sg266
g934
sbsS'wctype.h'
p2049
g236
(g1131
g238
Ntp2050
Rp2051
(dp2052
g1135
g1143
sg1136
g1165
sg266
S'c:/marmalade/6.2/s3e/h/std/wctype.h'
p2053
sbsS'cstddef'
p2054
g236
(g1131
g238
Ntp2055
Rp2056
(dp2057
g1135
g1143
sg1136
g1144
sg266
S'c:/marmalade/6.2/s3e/h/std/c++/cstddef'
p2058
sbsS'assert.h'
p2059
g236
(g1131
g238
Ntp2060
Rp2061
(dp2062
g1135
g1143
sg1136
g1165
sg266
S'c:/marmalade/6.2/s3e/h/std/assert.h'
p2063
sbsS'mman.h'
p2064
g236
(g1131
g238
Ntp2065
Rp2066
(dp2067
g1135
g1143
sg1136
g1275
sg266
S'c:/marmalade/6.2/s3e/h/std/sys/mman.h'
p2068
sbsS'IwRandom.h'
p2069
g236
(g1131
g238
Ntp2070
Rp2071
(dp2072
g1135
g1018
sg1136
g1172
sg266
g1052
sbsS'libgen.h'
p2073
g236
(g1131
g238
Ntp2074
Rp2075
(dp2076
g1135
g1143
sg1136
g1165
sg266
S'c:/marmalade/6.2/s3e/h/std/libgen.h'
p2077
sbsS'utsname.h'
p2078
g236
(g1131
g238
Ntp2079
Rp2080
(dp2081
g1135
g1143
sg1136
g1275
sg266
S'c:/marmalade/6.2/s3e/h/std/sys/utsname.h'
p2082
sbsS'wait.h'
p2083
g236
(g1131
g238
Ntp2084
Rp2085
(dp2086
g1135
g1143
sg1136
g1275
sg266
S'c:/marmalade/6.2/s3e/h/std/sys/wait.h'
p2087
sbsS'param.h'
p2088
g236
(g1131
g238
Ntp2089
Rp2090
(dp2091
g1135
g1143
sg1136
g1275
sg266
S'c:/marmalade/6.2/s3e/h/std/sys/param.h'
p2092
sbsS'IwDivide.h'
p2093
g236
(g1131
g238
Ntp2094
Rp2095
(dp2096
g1135
g1018
sg1136
g1172
sg266
g1104
sbsS'IwResManager.h'
p2097
g236
(g1131
g238
Ntp2098
Rp2099
(dp2100
g1135
g940
sg1136
g1381
sg266
g956
sbsS'ostream'
p2101
g236
(g1131
g238
Ntp2102
Rp2103
(dp2104
g1135
g1143
sg1136
g1144
sg266
S'c:/marmalade/6.2/s3e/h/std/c++/ostream'
p2105
sbsS'cwctype'
p2106
g236
(g1131
g238
Ntp2107
Rp2108
(dp2109
g1135
g1143
sg1136
g1144
sg266
S'c:/marmalade/6.2/s3e/h/std/c++/cwctype'
p2110
sbsS'set'
p2111
g236
(g1131
g238
Ntp2112
Rp2113
(dp2114
g1135
g1143
sg1136
g1144
sg266
S'c:/marmalade/6.2/s3e/h/std/c++/set'
p2115
sbsS'IwGeomSQuat.h'
p2116
g236
(g1131
g238
Ntp2117
Rp2118
(dp2119
g1135
g872
sg1136
g1153
sg266
g903
sbsS'locale'
p2120
g236
(g1131
g238
Ntp2121
Rp2122
(dp2123
g1135
g1143
sg1136
g1144
sg266
S'c:/marmalade/6.2/s3e/h/std/c++/locale'
p2124
sbsS'cstdio'
p2125
g236
(g1131
g238
Ntp2126
Rp2127
(dp2128
g1135
g1143
sg1136
g1144
sg266
S'c:/marmalade/6.2/s3e/h/std/c++/cstdio'
p2129
sbsVcdjpeg.h
p2130
g236
(g1131
g238
Ntp2131
Rp2132
(dp2133
g1135
g773
sg1136
g1217
sg266
g771
sbsS'IwList.h'
p2134
g236
(g1131
g238
Ntp2135
Rp2136
(dp2137
g1135
g1018
sg1136
g1172
sg266
g1084
sbsS'inttypes.h'
p2138
g236
(g1131
g238
Ntp2139
Rp2140
(dp2141
g1135
g1143
sg1136
g1165
sg266
S'c:/marmalade/6.2/s3e/h/std/inttypes.h'
p2142
sbsS'dirent.h'
p2143
g236
(g1131
g238
Ntp2144
Rp2145
(dp2146
g1135
g1143
sg1136
g1165
sg266
S'c:/marmalade/6.2/s3e/h/std/dirent.h'
p2147
sbsS'IwFColour.h'
p2148
g236
(g1131
g238
Ntp2149
Rp2150
(dp2151
g1135
g964
sg1136
g1261
sg266
g983
sbsVtransupp.h
p2152
g236
(g1131
g238
Ntp2153
Rp2154
(dp2155
g1135
g773
sg1136
g1217
sg266
g793
sbsS'IwMath.h'
p2156
g236
(g1131
g238
Ntp2157
Rp2158
(dp2159
g1135
g1018
sg1136
g1172
sg266
g1041
sbsS'Main.h'
p2160
g236
(g1131
g238
Ntp2161
Rp2162
(dp2163
g1135
g817
sg1136
(lp2164
g813
asg266
g815
sbsS'IwGeomQuat.h'
p2165
g236
(g1131
g238
Ntp2166
Rp2167
(dp2168
g1135
g872
sg1136
g1153
sg266
g908
sbsS'glplatform.h'
p2169
g236
(g1131
g238
Ntp2170
Rp2171
(dp2172
g1135
g1143
sg1136
g1658
sg266
S'c:/marmalade/6.2/s3e/h/GLES/glplatform.h'
p2173
sbsS'bitset'
p2174
g236
(g1131
g238
Ntp2175
Rp2176
(dp2177
g1135
g1143
sg1136
g1144
sg266
S'c:/marmalade/6.2/s3e/h/std/c++/bitset'
p2178
sbsS'alloca.h'
p2179
g236
(g1131
g238
Ntp2180
Rp2181
(dp2182
g1135
g1143
sg1136
g1165
sg266
S'c:/marmalade/6.2/s3e/h/std/alloca.h'
p2183
sbsS'IwResHandler.h'
p2184
g236
(g1131
g238
Ntp2185
Rp2186
(dp2187
g1135
g940
sg1136
g1381
sg266
g949
sbsS'IwResHandlerMTL.h'
p2188
g236
(g1131
g238
Ntp2189
Rp2190
(dp2191
g1135
g964
sg1136
g1261
sg266
g975
sbsS'IwRuntime.h'
p2192
g236
(g1131
g238
Ntp2193
Rp2194
(dp2195
g1135
g1018
sg1136
g1172
sg266
g1078
sbsS'limits'
p2196
g236
(g1131
g238
Ntp2197
Rp2198
(dp2199
g1135
g1143
sg1136
g1144
sg266
S'c:/marmalade/6.2/s3e/h/std/c++/limits'
p2200
sbsS'IwGeomBBox.h'
p2201
g236
(g1131
g238
Ntp2202
Rp2203
(dp2204
g1135
g872
sg1136
g1153
sg266
g895
sbsS's3eContacts.h'
p2205
g236
(g1131
g238
Ntp2206
Rp2207
(dp2208
g1135
g1143
sg1136
g1159
sg266
S'c:/marmalade/6.2/s3e/h/s3eContacts.h'
p2209
sbsS's3eLicense.h'
p2210
g236
(g1131
g238
Ntp2211
Rp2212
(dp2213
g1135
g1143
sg1136
g1159
sg266
S'c:/marmalade/6.2/s3e/h/s3eLicense.h'
p2214
sbsS'iwgx.config.txt'
p2215
g236
(g1131
g238
Ntp2216
Rp2217
(dp2218
g1135
g964
sg1136
g1261
sg266
g977
sbsS'IwTextParser.h'
p2219
g236
(g1131
g238
Ntp2220
Rp2221
(dp2222
g1135
g1018
sg1136
g1172
sg266
g1100
sbsS's3eTimer.h'
p2223
g236
(g1131
g238
Ntp2224
Rp2225
(dp2226
g1135
g1143
sg1136
g1159
sg266
S'c:/marmalade/6.2/s3e/h/s3eTimer.h'
p2227
sbsS'IwGeomVec.h'
p2228
g236
(g1131
g238
Ntp2229
Rp2230
(dp2231
g1135
g872
sg1136
g1153
sg266
g932
sbsS'IwSerialise.h'
p2232
g236
(g1131
g238
Ntp2233
Rp2234
(dp2235
g1135
g1018
sg1136
g1172
sg266
g1029
sbsS'cstdarg'
p2236
g236
(g1131
g238
Ntp2237
Rp2238
(dp2239
g1135
g1143
sg1136
g1144
sg266
S'c:/marmalade/6.2/s3e/h/std/c++/cstdarg'
p2240
sbsS'gl2ext.h'
p2241
g236
(g1131
g238
Ntp2242
Rp2243
(dp2244
g1135
g1143
sg1136
g1373
sg266
S'c:/marmalade/6.2/s3e/h/GLES2/gl2ext.h'
p2245
sbsS'IwChar.h'
p2246
g236
(g1131
g238
Ntp2247
Rp2248
(dp2249
g1135
g1018
sg1136
g1172
sg266
g1114
sbsS's3eSound.h'
p2250
g236
(g1131
g238
Ntp2251
Rp2252
(dp2253
g1135
g1143
sg1136
g1159
sg266
S'c:/marmalade/6.2/s3e/h/s3eSound.h'
p2254
sbsS'IwOptimiseThumb.h'
p2255
g236
(g1131
g238
Ntp2256
Rp2257
(dp2258
g1135
g1018
sg1136
g1172
sg266
g1082
sbsS'exception.h'
p2259
g236
(g1131
g238
Ntp2260
Rp2261
(dp2262
g1135
g1143
sg1136
g1144
sg266
S'c:/marmalade/6.2/s3e/h/std/c++/exception.h'
p2263
sbsS'iwgeom.config.txt'
p2264
g236
(g1131
g238
Ntp2265
Rp2266
(dp2267
g1135
g872
sg1136
g1153
sg266
g901
sbsS'iwgx.mkf'
p2268
g236
(g1131
g238
Ntp2269
Rp2270
(dp2271
g1135
g997
sg1136
g1261
sg266
g995
sbsS'gl.h'
p2272
g236
(g1131
g238
Ntp2273
Rp2274
(dp2275
g1135
g1143
sg1136
g1658
sg266
S'c:/marmalade/6.2/s3e/h/GLES/gl.h'
p2276
sbsVzlib.h
p2277
g236
(g1131
g238
Ntp2278
Rp2279
(dp2280
g1135
g1122
sg1136
g1615
sg266
g1123
sbsS'iwgl.mkf'
p2281
g236
(g1131
g238
Ntp2282
Rp2283
(dp2284
g1135
g833
sg1136
g1242
sg266
g831
sbsS'IwColour.h'
p2285
g236
(g1131
g238
Ntp2286
Rp2287
(dp2288
g1135
g964
sg1136
g1261
sg266
g987
sbsS's3eLibrary.h'
p2289
g236
(g1131
g238
Ntp2290
Rp2291
(dp2292
g1135
g1143
sg1136
g1344
sg266
S'c:/marmalade/6.2/s3e/h/ext/s3eLibrary.h'
p2293
sbsS'types.h'
p2294
g236
(g1131
g238
Ntp2295
Rp2296
(dp2297
g1135
g1143
sg1136
g1275
sg266
S'c:/marmalade/6.2/s3e/h/std/sys/types.h'
p2298
sbsS'ifaddrs.h'
p2299
g236
(g1131
g238
Ntp2300
Rp2301
(dp2302
g1135
g1143
sg1136
g1165
sg266
S'c:/marmalade/6.2/s3e/h/std/ifaddrs.h'
p2303
sbsS'strstream'
p2304
g236
(g1131
g238
Ntp2305
Rp2306
(dp2307
g1135
g1143
sg1136
g1144
sg266
S'c:/marmalade/6.2/s3e/h/std/c++/strstream'
p2308
sbsS'exception'
p2309
g236
(g1131
g238
Ntp2310
Rp2311
(dp2312
g1135
g1143
sg1136
g1144
sg266
S'c:/marmalade/6.2/s3e/h/std/c++/exception'
p2313
sbsS'rlocks.h'
p2314
g236
(g1131
g238
Ntp2315
Rp2316
(dp2317
g1135
g1143
sg1136
g1144
sg266
S'c:/marmalade/6.2/s3e/h/std/c++/rlocks.h'
p2318
sbsS'ioctl.h'
p2319
g236
(g1131
g238
Ntp2320
Rp2321
(dp2322
g1135
g1143
sg1136
g1275
sg266
S'c:/marmalade/6.2/s3e/h/std/sys/ioctl.h'
p2323
sbsS'rope'
p2324
g236
(g1131
g238
Ntp2325
Rp2326
(dp2327
g1135
g1143
sg1136
g1144
sg266
S'c:/marmalade/6.2/s3e/h/std/c++/rope'
p2328
sbsVjinclude.h
p2329
g236
(g1131
g238
Ntp2330
Rp2331
(dp2332
g1135
g773
sg1136
g1217
sg266
g789
sbsS'IwEvent.h'
p2333
g236
(g1131
g238
Ntp2334
Rp2335
(dp2336
g1135
g1018
sg1136
g1172
sg266
g1112
sbsS'IwOptimiseSize.h'
p2337
g236
(g1131
g238
Ntp2338
Rp2339
(dp2340
g1135
g1018
sg1136
g1172
sg266
g1066
sbsS'iwgxfont_public.defines.txt'
p2341
g236
(g1131
g238
Ntp2342
Rp2343
(dp2344
g1135
g850
sg1136
g1137
sg266
g848
sbsS'iconv.h'
p2345
g236
(g1131
g238
Ntp2346
Rp2347
(dp2348
g1135
g1143
sg1136
g1165
sg266
S'c:/marmalade/6.2/s3e/h/std/iconv.h'
p2349
sbsS'sendfile.h'
p2350
g236
(g1131
g238
Ntp2351
Rp2352
(dp2353
g1135
g1143
sg1136
g1275
sg266
S'c:/marmalade/6.2/s3e/h/std/sys/sendfile.h'
p2354
sbsS'IwGeomSphere.h'
p2355
g236
(g1131
g238
Ntp2356
Rp2357
(dp2358
g1135
g872
sg1136
g1153
sg266
g918
sbsVtiniconv.mkf
p2359
g236
(g1131
g238
Ntp2360
Rp2361
(dp2362
g1135
g810
sg1136
g1562
sg266
g808
sbsVjdct.h
p2363
g236
(g1131
g238
Ntp2364
Rp2365
(dp2366
g1135
g773
sg1136
g1217
sg266
g787
sbsS'cwchar'
p2367
g236
(g1131
g238
Ntp2368
Rp2369
(dp2370
g1135
g1143
sg1136
g1144
sg266
S'c:/marmalade/6.2/s3e/h/std/c++/cwchar'
p2371
sbsS's3eConfig.h'
p2372
g236
(g1131
g238
Ntp2373
Rp2374
(dp2375
g1135
g1143
sg1136
g1159
sg266
S'c:/marmalade/6.2/s3e/h/s3eConfig.h'
p2376
sbsS'IwHashString.h'
p2377
g236
(g1131
g238
Ntp2378
Rp2379
(dp2380
g1135
g1018
sg1136
g1172
sg266
g1106
sbsS'stat.h'
p2381
g236
(g1131
g238
Ntp2382
Rp2383
(dp2384
g1135
g1143
sg1136
g1275
sg266
S'c:/marmalade/6.2/s3e/h/std/sys/stat.h'
p2385
sbsS'byteswap.h'
p2386
g236
(g1131
g238
Ntp2387
Rp2388
(dp2389
g1135
g1143
sg1136
g1165
sg266
S'c:/marmalade/6.2/s3e/h/std/byteswap.h'
p2390
sbsS'iwresmanager.mkf'
p2391
g236
(g1131
g238
Ntp2392
Rp2393
(dp2394
g1135
g953
sg1136
g1381
sg266
g951
sbsS'IwUtilInitTerm.h'
p2395
g236
(g1131
g238
Ntp2396
Rp2397
(dp2398
g1135
g1018
sg1136
g1172
sg266
g1037
sbsS'pthread_1.h'
p2399
g236
(g1131
g238
Ntp2400
Rp2401
(dp2402
g1135
g1143
sg1136
g1144
sg266
S'c:/marmalade/6.2/s3e/h/std/c++/pthread.h'
p2403
sbsS'IwMemBucket.h'
p2404
g236
(g1131
g238
Ntp2405
Rp2406
(dp2407
g1135
g1018
sg1136
g1172
sg266
g1074
sbsS'complex'
p2408
g236
(g1131
g238
Ntp2409
Rp2410
(dp2411
g1135
g1143
sg1136
g1144
sg266
S'c:/marmalade/6.2/s3e/h/std/c++/complex'
p2412
sbsS's3e.icf'
p2413
g236
(g1131
g238
Ntp2414
Rp2415
(dp2416
g1135
g1143
sg1136
g1159
sg266
S'c:/marmalade/6.2/s3e/s3e.icf'
p2417
sbsS'IwVariableBitField.h'
p2418
g236
(g1131
g238
Ntp2419
Rp2420
(dp2421
g1135
g1018
sg1136
g1172
sg266
g1080
sbsS'sem.h'
p2422
g236
(g1131
g238
Ntp2423
Rp2424
(dp2425
g1135
g1143
sg1136
g1275
sg266
S'c:/marmalade/6.2/s3e/h/std/sys/sem.h'
p2426
sbsS'IwGxFontState.h'
p2427
g236
(g1131
g238
Ntp2428
Rp2429
(dp2430
g1135
g850
sg1136
g1137
sg266
g854
sbsS'stdio.h'
p2431
g236
(g1131
g238
Ntp2432
Rp2433
(dp2434
g1135
g1143
sg1136
g1165
sg266
S'c:/marmalade/6.2/s3e/h/std/stdio.h'
p2435
sbsVjmemsys.h
p2436
g236
(g1131
g238
Ntp2437
Rp2438
(dp2439
g1135
g773
sg1136
g1217
sg266
g797
sbsS'ios'
p2440
g236
(g1131
g238
Ntp2441
Rp2442
(dp2443
g1135
g1143
sg1136
g1144
sg266
S'c:/marmalade/6.2/s3e/h/std/c++/ios'
p2444
sbsS'stack'
p2445
g236
(g1131
g238
Ntp2446
Rp2447
(dp2448
g1135
g1143
sg1136
g1144
sg266
S'c:/marmalade/6.2/s3e/h/std/c++/stack'
p2449
sbsS'new.h'
p2450
g236
(g1131
g238
Ntp2451
Rp2452
(dp2453
g1135
g1143
sg1136
g1144
sg266
S'c:/marmalade/6.2/s3e/h/std/c++/new.h'
p2454
sbsS's3eEMail.h'
p2455
g236
(g1131
g238
Ntp2456
Rp2457
(dp2458
g1135
g1143
sg1136
g1344
sg266
S'c:/marmalade/6.2/s3e/h/ext/s3eEMail.h'
p2459
sbsS's3eVideo.h'
p2460
g236
(g1131
g238
Ntp2461
Rp2462
(dp2463
g1135
g1143
sg1136
g1159
sg266
S'c:/marmalade/6.2/s3e/h/s3eVideo.h'
p2464
sbsS'IwFile.h'
p2465
g236
(g1131
g238
Ntp2466
Rp2467
(dp2468
g1135
g1018
sg1136
g1172
sg266
g1021
sbsS'pwd.h'
p2469
g236
(g1131
g238
Ntp2470
Rp2471
(dp2472
g1135
g1143
sg1136
g1165
sg266
S'c:/marmalade/6.2/s3e/h/std/pwd.h'
p2473
sbsS'IwClip.h'
p2474
g236
(g1131
g238
Ntp2475
Rp2476
(dp2477
g1135
g964
sg1136
g1261
sg266
g1010
sbsS'iwresmanager.config.txt'
p2478
g236
(g1131
g238
Ntp2479
Rp2480
(dp2481
g1135
g940
sg1136
g1381
sg266
g947
sbsS'IwGxShaderTechnique.h'
p2482
g236
(g1131
g238
Ntp2483
Rp2484
(dp2485
g1135
g964
sg1136
g1261
sg266
g1004
sbsS'IwCore.h'
p2486
g236
(g1131
g238
Ntp2487
Rp2488
(dp2489
g1135
g1018
sg1136
g1172
sg266
g1025
sbsS'cfloat'
p2490
g236
(g1131
g238
Ntp2491
Rp2492
(dp2493
g1135
g1143
sg1136
g1144
sg266
S'c:/marmalade/6.2/s3e/h/std/c++/cfloat'
p2494
sbsS'IwGeomMat2D.h'
p2495
g236
(g1131
g238
Ntp2496
Rp2497
(dp2498
g1135
g872
sg1136
g1153
sg266
g910
sbsS'IwAllocator.h'
p2499
g236
(g1131
g238
Ntp2500
Rp2501
(dp2502
g1135
g1018
sg1136
g1172
sg266
g1094
sbsS'IwPath.h'
p2503
g236
(g1131
g238
Ntp2504
Rp2505
(dp2506
g1135
g1018
sg1136
g1172
sg266
g1031
sbsS'iwgxfont.mkf'
p2507
g236
(g1131
g238
Ntp2508
Rp2509
(dp2510
g1135
g853
sg1136
g1137
sg266
g851
sbsS'IwTexture.h'
p2511
g236
(g1131
g238
Ntp2512
Rp2513
(dp2514
g1135
g964
sg1136
g1261
sg266
g981
sbsS's3eAccelerometer.h'
p2515
g236
(g1131
g238
Ntp2516
Rp2517
(dp2518
g1135
g1143
sg1136
g1159
sg266
S'c:/marmalade/6.2/s3e/h/s3eAccelerometer.h'
p2519
sbsS'setjmp.h'
p2520
g236
(g1131
g238
Ntp2521
Rp2522
(dp2523
g1135
g1143
sg1136
g1165
sg266
S'c:/marmalade/6.2/s3e/h/std/setjmp.h'
p2524
sbsVpngconf.h
p2525
g236
(g1131
g238
Ntp2526
Rp2527
(dp2528
g1135
g766
sg1136
g1630
sg266
g767
sbsS'IwTextParseable.h'
p2529
g236
(g1131
g238
Ntp2530
Rp2531
(dp2532
g1135
g1018
sg1136
g1172
sg266
g1102
sbsS'istream.h'
p2533
g236
(g1131
g238
Ntp2534
Rp2535
(dp2536
g1135
g1143
sg1136
g1144
sg266
S'c:/marmalade/6.2/s3e/h/std/c++/istream.h'
p2537
sbsS'stdint.h'
p2538
g236
(g1131
g238
Ntp2539
Rp2540
(dp2541
g1135
g1143
sg1136
g1165
sg266
S'c:/marmalade/6.2/s3e/h/std/stdint.h'
p2542
sbsS'semaphore.h'
p2543
g236
(g1131
g238
Ntp2544
Rp2545
(dp2546
g1135
g1143
sg1136
g1165
sg266
S'c:/marmalade/6.2/s3e/h/std/semaphore.h'
p2547
sbsS'Main.cpp'
p2548
g236
(g1131
g238
Ntp2549
Rp2550
(dp2551
g1135
g817
sg1136
g2164
sg266
g818
sbsS'ctime'
p2552
g236
(g1131
g238
Ntp2553
Rp2554
(dp2555
g1135
g1143
sg1136
g1144
sg266
S'c:/marmalade/6.2/s3e/h/std/c++/ctime'
p2556
sbsS'sstream'
p2557
g236
(g1131
g238
Ntp2558
Rp2559
(dp2560
g1135
g1143
sg1136
g1144
sg266
S'c:/marmalade/6.2/s3e/h/std/c++/sstream'
p2561
sbsS'IwGeomFBBox.h'
p2562
g236
(g1131
g238
Ntp2563
Rp2564
(dp2565
g1135
g872
sg1136
g1153
sg266
g883
sbsS'IwDebugPrim.h'
p2566
g236
(g1131
g238
Ntp2567
Rp2568
(dp2569
g1135
g964
sg1136
g1261
sg266
g973
sbsS'IwGxFontContainer.h'
p2570
g236
(g1131
g238
Ntp2571
Rp2572
(dp2573
g1135
g850
sg1136
g1137
sg266
g860
sbsS'IwGeomSVec3.h'
p2574
g236
(g1131
g238
Ntp2575
Rp2576
(dp2577
g1135
g872
sg1136
g1153
sg266
g914
sbsS'cassert'
p2578
g236
(g1131
g238
Ntp2579
Rp2580
(dp2581
g1135
g1143
sg1136
g1144
sg266
S'c:/marmalade/6.2/s3e/h/std/c++/cassert'
p2582
sbsS'IwGeomFVec3.h'
p2583
g236
(g1131
g238
Ntp2584
Rp2585
(dp2586
g1135
g872
sg1136
g1153
sg266
g873
sbsS'streambuf'
p2587
g236
(g1131
g238
Ntp2588
Rp2589
(dp2590
g1135
g1143
sg1136
g1144
sg266
S'c:/marmalade/6.2/s3e/h/std/c++/streambuf'
p2591
sbsS's3eMetrics.h'
p2592
g236
(g1131
g238
Ntp2593
Rp2594
(dp2595
g1135
g1143
sg1136
g1344
sg266
S'c:/marmalade/6.2/s3e/h/ext/s3eMetrics.h'
p2596
sbsS'IwGxFont.h'
p2597
g236
(g1131
g238
Ntp2598
Rp2599
(dp2600
g1135
g850
sg1136
g1137
sg266
g866
sbsS's3eSecureStorage.h'
p2601
g236
(g1131
g238
Ntp2602
Rp2603
(dp2604
g1135
g1143
sg1136
g1159
sg266
S'c:/marmalade/6.2/s3e/h/s3eSecureStorage.h'
p2605
sbsS'string.h'
p2606
g236
(g1131
g238
Ntp2607
Rp2608
(dp2609
g1135
g1143
sg1136
g1165
sg266
S'c:/marmalade/6.2/s3e/h/std/string.h'
p2610
sbsS'IwResource.h'
p2611
g236
(g1131
g238
Ntp2612
Rp2613
(dp2614
g1135
g1018
sg1136
g1172
sg266
g1019
sbsVlibjpeg.mkf
p2615
g236
(g1131
g238
Ntp2616
Rp2617
(dp2618
g1135
g782
sg1136
g1217
sg266
g780
sbsS'IwGxDebug.h'
p2619
g236
(g1131
g238
Ntp2620
Rp2621
(dp2622
g1135
g964
sg1136
g1261
sg266
g979
sbsS'pthread_types.h'
p2623
g236
(g1131
g238
Ntp2624
Rp2625
(dp2626
g1135
g1143
sg1136
g1165
sg266
S'c:/marmalade/6.2/s3e/h/std/pthread_types.h'
p2627
sbsS'iomanip.h'
p2628
g236
(g1131
g238
Ntp2629
Rp2630
(dp2631
g1135
g1143
sg1136
g1144
sg266
S'c:/marmalade/6.2/s3e/h/std/c++/iomanip.h'
p2632
sbsS'IwKeymap.h'
p2633
g236
(g1131
g238
Ntp2634
Rp2635
(dp2636
g1135
g1018
sg1136
g1172
sg266
g1072
sbsS'IwDebug.h'
p2637
g236
(g1131
g238
Ntp2638
Rp2639
(dp2640
g1135
g1018
sg1136
g1172
sg266
g1048
sbsS's3eIOSBackgroundAudio.h'
p2641
g236
(g1131
g238
Ntp2642
Rp2643
(dp2644
g1135
g1143
sg1136
g1344
sg266
S'c:/marmalade/6.2/s3e/h/ext/s3eIOSBackgroundAudio.h'
p2645
sbsS'IwGeomMenu.h'
p2646
g236
(g1131
g238
Ntp2647
Rp2648
(dp2649
g1135
g872
sg1136
g1153
sg266
g870
sbsS'IwDivTable.h'
p2650
g236
(g1131
g238
Ntp2651
Rp2652
(dp2653
g1135
g1018
sg1136
g1172
sg266
g1086
sbsS'ctype.h'
p2654
g236
(g1131
g238
Ntp2655
Rp2656
(dp2657
g1135
g1143
sg1136
g1165
sg266
S'c:/marmalade/6.2/s3e/h/std/ctype.h'
p2658
sbsS'IwGeomMat.h'
p2659
g236
(g1131
g238
Ntp2660
Rp2661
(dp2662
g1135
g872
sg1136
g1153
sg266
g926
sbsS'IwResGroup.h'
p2663
g236
(g1131
g238
Ntp2664
Rp2665
(dp2666
g1135
g940
sg1136
g1381
sg266
g954
sbsS'signal_1.h'
p2667
g236
(g1131
g238
Ntp2668
Rp2669
(dp2670
g1135
g1143
sg1136
g1275
sg266
S'c:/marmalade/6.2/s3e/h/std/sys/signal.h'
p2671
sbsS'functional'
p2672
g236
(g1131
g238
Ntp2673
Rp2674
(dp2675
g1135
g1143
sg1136
g1144
sg266
S'c:/marmalade/6.2/s3e/h/std/c++/functional'
p2676
sbsS'shm.h'
p2677
g236
(g1131
g238
Ntp2678
Rp2679
(dp2680
g1135
g1143
sg1136
g1275
sg266
S'c:/marmalade/6.2/s3e/h/std/sys/shm.h'
p2681
sbsVjpegint.h
p2682
g236
(g1131
g238
Ntp2683
Rp2684
(dp2685
g1135
g773
sg1136
g1217
sg266
g801
sbsS'prctl.h'
p2686
g236
(g1131
g238
Ntp2687
Rp2688
(dp2689
g1135
g1143
sg1136
g1275
sg266
S'c:/marmalade/6.2/s3e/h/std/sys/prctl.h'
p2690
sbsS'un.h'
p2691
g236
(g1131
g238
Ntp2692
Rp2693
(dp2694
g1135
g1143
sg1136
g1275
sg266
S'c:/marmalade/6.2/s3e/h/std/sys/un.h'
p2695
sbsS'utility'
p2696
g236
(g1131
g238
Ntp2697
Rp2698
(dp2699
g1135
g1143
sg1136
g1144
sg266
S'c:/marmalade/6.2/s3e/h/std/c++/utility'
p2700
sbsS'IwGeomLegacy.h'
p2701
g236
(g1131
g238
Ntp2702
Rp2703
(dp2704
g1135
g872
sg1136
g1153
sg266
g885
sbsS'IwTPage.h'
p2705
g236
(g1131
g238
Ntp2706
Rp2707
(dp2708
g1135
g964
sg1136
g1261
sg266
g993
sbsS'IwResSerialise.h'
p2709
g236
(g1131
g238
Ntp2710
Rp2711
(dp2712
g1135
g940
sg1136
g1381
sg266
g938
sbsS's3eCrypto.h'
p2713
g236
(g1131
g238
Ntp2714
Rp2715
(dp2716
g1135
g1143
sg1136
g1159
sg266
S'c:/marmalade/6.2/s3e/h/s3eCrypto.h'
p2717
sbsS's3eKeyboard.h'
p2718
g236
(g1131
g238
Ntp2719
Rp2720
(dp2721
g1135
g1143
sg1136
g1159
sg266
S'c:/marmalade/6.2/s3e/h/s3eKeyboard.h'
p2722
sbsS'fcntl.h'
p2723
g236
(g1131
g238
Ntp2724
Rp2725
(dp2726
g1135
g1143
sg1136
g1165
sg266
S'c:/marmalade/6.2/s3e/h/std/fcntl.h'
p2727
sbsS'memory.h'
p2728
g236
(g1131
g238
Ntp2729
Rp2730
(dp2731
g1135
g1143
sg1136
g1165
sg266
S'c:/marmalade/6.2/s3e/h/std/memory.h'
p2732
sbsS'pthread.h'
p2733
g236
(g1131
g238
Ntp2734
Rp2735
(dp2736
g1135
g1143
sg1136
g1165
sg266
S'c:/marmalade/6.2/s3e/h/std/pthread.h'
p2737
sbsS'IwGeomIntersect.h'
p2738
g236
(g1131
g238
Ntp2739
Rp2740
(dp2741
g1135
g872
sg1136
g1153
sg266
g881
sbsS'algorithm'
p2742
g236
(g1131
g238
Ntp2743
Rp2744
(dp2745
g1135
g1143
sg1136
g1144
sg266
S'c:/marmalade/6.2/s3e/h/std/c++/algorithm'
p2746
sbsS'egl_1.h'
p2747
g236
(g1131
g238
Ntp2748
Rp2749
(dp2750
g1135
g1143
sg1136
g1658
sg266
S'c:/marmalade/6.2/s3e/h/GLES/egl.h'
p2751
sbsS'ostream.h'
p2752
g236
(g1131
g238
Ntp2753
Rp2754
(dp2755
g1135
g1143
sg1136
g1144
sg266
S'c:/marmalade/6.2/s3e/h/std/c++/ostream.h'
p2756
sbsS'stl_user_config.h'
p2757
g236
(g1131
g238
Ntp2758
Rp2759
(dp2760
g1135
g1143
sg1136
g1144
sg266
S'c:/marmalade/6.2/s3e/h/std/c++/stl_user_config.h'
p2761
sbsS'IwProfileMenu.h'
p2762
g236
(g1131
g238
Ntp2763
Rp2764
(dp2765
g1135
g1018
sg1136
g1172
sg266
g1070
sbsS'MarmaladeVersion.h'
p2766
g236
(g1131
g238
Ntp2767
Rp2768
(dp2769
g1135
g1143
sg1136
g1159
sg266
S'c:/marmalade/6.2/s3e/h/MarmaladeVersion.h'
p2770
sbsS'ios.h'
p2771
g236
(g1131
g238
Ntp2772
Rp2773
(dp2774
g1135
g1143
sg1136
g1144
sg266
S'c:/marmalade/6.2/s3e/h/std/c++/ios.h'
p2775
sbsS'IwImageHelper.h'
p2776
g236
(g1131
g238
Ntp2777
Rp2778
(dp2779
g1135
g1018
sg1136
g1172
sg266
g1096
sbsS'hash_set'
p2780
g236
(g1131
g238
Ntp2781
Rp2782
(dp2783
g1135
g1143
sg1136
g1144
sg266
S'c:/marmalade/6.2/s3e/h/std/c++/hash_set'
p2784
sbsS'IwGeomFQuat.h'
p2785
g236
(g1131
g238
Ntp2786
Rp2787
(dp2788
g1135
g872
sg1136
g1153
sg266
g928
sbsVjmorecfg.h
p2789
g236
(g1131
g238
Ntp2790
Rp2791
(dp2792
g1135
g773
sg1136
g1217
sg266
g776
sbsS'eglplatform.h'
p2793
g236
(g1131
g238
Ntp2794
Rp2795
(dp2796
g1135
g1143
sg1136
g1452
sg266
S'c:/marmalade/6.2/s3e/h/EGL/eglplatform.h'
p2797
sbsS'stdbool.h'
p2798
g236
(g1131
g238
Ntp2799
Rp2800
(dp2801
g1135
g1143
sg1136
g1165
sg266
S'c:/marmalade/6.2/s3e/h/std/stdbool.h'
p2802
sbsS'math_gcc.h'
p2803
g236
(g1131
g238
Ntp2804
Rp2805
(dp2806
g1135
g1143
sg1136
g1165
sg266
S'c:/marmalade/6.2/s3e/h/std/math_gcc.h'
p2807
sbsS's3eMemory.h'
p2808
g236
(g1131
g238
Ntp2809
Rp2810
(dp2811
g1135
g1143
sg1136
g1159
sg266
S'c:/marmalade/6.2/s3e/h/s3eMemory.h'
p2812
sbsS'strings.h'
p2813
g236
(g1131
g238
Ntp2814
Rp2815
(dp2816
g1135
g1143
sg1136
g1165
sg266
S'c:/marmalade/6.2/s3e/h/std/strings.h'
p2817
sbsS's3eFile.h'
p2818
g236
(g1131
g238
Ntp2819
Rp2820
(dp2821
g1135
g1143
sg1136
g1159
sg266
S'c:/marmalade/6.2/s3e/h/s3eFile.h'
p2822
sbsS'IwGxTypes.h'
p2823
g236
(g1131
g238
Ntp2824
Rp2825
(dp2826
g1135
g964
sg1136
g1261
sg266
g967
sbsS'cerrno'
p2827
g236
(g1131
g238
Ntp2828
Rp2829
(dp2830
g1135
g1143
sg1136
g1144
sg266
S'c:/marmalade/6.2/s3e/h/std/c++/cerrno'
p2831
sbsS'resource.h'
p2832
g236
(g1131
g238
Ntp2833
Rp2834
(dp2835
g1135
g1143
sg1136
g1275
sg266
S'c:/marmalade/6.2/s3e/h/std/sys/resource.h'
p2836
sbsS'clocale'
p2837
g236
(g1131
g238
Ntp2838
Rp2839
(dp2840
g1135
g1143
sg1136
g1144
sg266
S'c:/marmalade/6.2/s3e/h/std/c++/clocale'
p2841
sbsS'csetjmp'
p2842
g236
(g1131
g238
Ntp2843
Rp2844
(dp2845
g1135
g1143
sg1136
g1144
sg266
S'c:/marmalade/6.2/s3e/h/std/c++/csetjmp'
p2846
sbsS'netdb.h'
p2847
g236
(g1131
g238
Ntp2848
Rp2849
(dp2850
g1135
g1143
sg1136
g1165
sg266
S'c:/marmalade/6.2/s3e/h/std/netdb.h'
p2851
sbsS's3eAndroidJNI.h'
p2852
g236
(g1131
g238
Ntp2853
Rp2854
(dp2855
g1135
g1143
sg1136
g1344
sg266
S'c:/marmalade/6.2/s3e/h/ext/s3eAndroidJNI.h'
p2856
sbsS'stdexcept'
p2857
g236
(g1131
g238
Ntp2858
Rp2859
(dp2860
g1135
g1143
sg1136
g1144
sg266
S'c:/marmalade/6.2/s3e/h/std/c++/stdexcept'
p2861
sbsS'math.h'
p2862
g236
(g1131
g238
Ntp2863
Rp2864
(dp2865
g1135
g1143
sg1136
g1165
sg266
S'c:/marmalade/6.2/s3e/h/std/math.h'
p2866
sbsS'cmath'
p2867
g236
(g1131
g238
Ntp2868
Rp2869
(dp2870
g1135
g1143
sg1136
g1144
sg266
S'c:/marmalade/6.2/s3e/h/std/c++/cmath'
p2871
sbsS'uio.h'
p2872
g236
(g1131
g238
Ntp2873
Rp2874
(dp2875
g1135
g1143
sg1136
g1275
sg266
S'c:/marmalade/6.2/s3e/h/std/sys/uio.h'
p2876
sbsS'IwUncopyable.h'
p2877
g236
(g1131
g238
Ntp2878
Rp2879
(dp2880
g1135
g1018
sg1136
g1172
sg266
g1046
sbssS'tests'
p2881
(lp2882
sS'project_name'
p2883
g244
sS'root_file'
p2884
g105
sS'current_root'
p2885
S'c:/Users/Daniel/Documents/DrawSprite_Iw2D/DrawSprite_Iw2D'
p2886
sS'dependencies'
p2887
(lp2888
sS'include_paths'
p2889
(lp2890
Vc:/users/daniel/appdata/roaming/marmalade/packages/6.2.0/libjpeg_6b/h
p2891
aVc:/users/daniel/appdata/roaming/marmalade/packages/6.2.0/zlib_1.2.4/h
p2892
aVc:/users/daniel/appdata/roaming/marmalade/packages/6.2.0/libpng_1.2.34/h
p2893
aS'c:/marmalade/6.2/modules/iwutil/h'
p2894
aS'c:/marmalade/6.2/modules/iwgeom/h'
p2895
aS'c:/marmalade/6.2/modules/iwresmanager/h'
p2896
aS'c:/marmalade/6.2/modules/iwgl/h'
p2897
aS'c:/marmalade/6.2/modules/iwgx/h'
p2898
aVc:/users/daniel/appdata/roaming/marmalade/packages/6.2.0/tiniconv_1.0.1/h
p2899
aS'c:/marmalade/6.2/modules/iwgxfont/h'
p2900
aS'c:/marmalade/6.2/modules/iw2d/h'
p2901
aS'c:/Users/Daniel/Documents/DrawSprite_Iw2D/DrawSprite_Iw2D/source'
p2902
aS'c:/marmalade/6.2/s3e/h'
p2903
aS'c:/marmalade/6.2/s3e/h/ext'
p2904
aS'c:/marmalade/6.2/s3e/h/std'
p2905
aS'c:/marmalade/6.2/s3e/h/std/c++'
p2906
aS'c:/marmalade/6.2/s3e/h/ext_legacy'
p2907
aS'c:/marmalade/6.2/s3e/h/legacy'
p2908
asS'weak_frameworks'
p2909
(lp2910
sS'extprojects'
p2911
(dp2912
sg480
(dp2913
g474
(lp2914
(S'c:/Users/Daniel/Documents/DrawSprite_Iw2D/DrawSprite_Iw2D/data/test1.png'
p2915
S'test1.png'
p2916
I0
tp2917
a(S'c:/Users/Daniel/Documents/DrawSprite_Iw2D/DrawSprite_Iw2D/data/test2.png'
p2918
S'test2.png'
p2919
I0
tp2920
assS'macro_types'
p2921
(dp2922
g425
I1
sg426
I0
sg427
I0
sg428
I0
sg429
I0
sg430
I0
sg431
I0
sg433
I0
sg434
I0
sg435
I0
sg436
I0
sg438
I0
sg440
I0
sg441
I0
sg442
I0
sg443
I0
sg444
I1
sg445
I0
sg446
I0
sg447
I0
sg448
I01
sg449
I1
sg450
I0
sg451
I0
sg452
I0
ssS'commands'
p2923
(lp2924
sg482
(g752
S'VC9'
p2925
S'X86ARM'
p2926
tp2927
sS'subprojectOptions'
p2928
(dp2929
g486
(lp2930
sg488
Nsg489
Nsg490
Nsg491
Nsg492
Nsg493
Nsg494
Nsg495
(lp2931
sg708
Nsg497
Nsg499
Nsg627
Nsg501
Nsg502
Nsg503
Nsg504
Nsg505
Nsg506
Nsg507
Nsg508
Nsg691
(lp2932
sg509
Nsg510
(lp2933
sg709
Nsg513
Nsg514
Nsg710
Nsg705
Nsg516
Nsg519
Nsg520
Nsg521
Nsg621
Nsg522
Nsg523
Nsg713
Nsg525
Nsg526
Nsg704
Nsg527
Nsg528
Nsg529
Nsg530
Nsg531
Nsg532
Nsg533
Nsg534
Nsg582
Nsg536
Nsg538
Nsg539
Nsg541
Nsg543
Nsg545
Nsg546
Nsg548
Nsg549
Nsg550
Nsg551
Nsg694
Nsg552
Nsg554
Nsg555
Nsg556
Nsg557
Nsg558
Nsg559
Nsg586
Nsg561
(lp2934
sg563
Nsg564
Nsg565
Nsg566
Nsg567
Nsg568
Nsg569
Nsg570
Nsg637
Nsg572
Nsg573
Nsg574
Nsg575
(lp2935
sg577
Nsg578
Nsg579
Nsg580
Nsg581
Nsg535
Nsg583
Nsg584
Nsg590
(lp2936
sg560
Nsg587
Nsg588
Nsg589
Nsg585
Nsg592
Nsg727
Nsg594
Nsg595
Nsg596
Nsg597
Nsg598
Nsg599
Nsg600
Nsg601
Nsg641
Nsg603
Nsg604
Nsg605
(lp2937
sg607
Nsg608
Nsg728
Nsg610
Nsg611
Nsg612
Nsg613
Nsg614
Nsg615
Nsg616
Nsg642
Nsg618
Nsg619
Nsg620
Nsg517
Nsg622
(lp2938
sg624
Nsg625
Nsg626
Nsg749
Nsg500
Nsg628
Nsg629
Nsg630
Nsg631
(lp2939
sg498
Nsg633
Nsg634
Nsg635
Nsg636
Nsg571
Nsg639
Nsg640
Nsg602
Nsg617
Nsg643
Nsg644
Nsg645
Nsg646
Nsg647
Nsg648
Nsg649
Nsg650
Nsg651
Nsg736
Nsg653
Nsg654
Nsg655
Nsg542
Nsg657
(lp2940
sg659
Nsg660
Nsg661
Nsg662
Nsg663
Nsg664
Nsg665
(lp2941
sg667
(lp2942
sg669
Nsg670
Nsg671
Nsg672
Nsg673
Nsg674
Nsg675
Nsg676
Nsg677
Nsg740
Nsg679
Nsg680
Nsg681
Nsg682
Nsg683
Nsg684
Nsg685
Nsg686
Nsg687
Nsg695
Nsg689
Nsg734
Nsg690
Nsg518
Nsg693
Nsg547
Nsg688
Nsg744
Nsg697
Nsg698
Nsg699
Nsg733
Nsg700
Nsg701
Nsg702
Nsg703
Nsg540
Nsg524
Nsg706
Nsg707
Nsg656
Nsg512
Nsg515
Nsg711
Nsg712
Nsg638
Nsg714
Nsg715
Nsg716
Nsg717
Nsg718
Nsg719
Nsg720
Nsg721
Nsg722
Nsg723
(lp2943
sg725
Nsg726
Nsg593
Nsg609
Nsg729
Nsg730
Nsg731
Nsg732
Nsg553
Nsg544
Nsg735
Nsg652
Nsg737
Nsg738
Nsg739
Nsg678
Nsg741
Nsg742
Nsg743
Nsg696
Nsg745
Nsg746
Nsg747
Nsg748
Nsg537
Nsg750
NssS'build_libs'
p2944
(dp2945
sS'frameworks'
p2946
(lp2947
sS'environ'
p2948
(dp2949
sS'target_name_debug'
p2950
g244
sS'builders'
p2951
(dp2952
S'.S'
p2953
(dp2954
S'rvct'
p2955
(lp2956
S'.obj'
p2957
aS'echo ARM Assembling(RVCT) ${SOURCE}...'
p2958
aS'c:/marmalade/6.2/s3e\\rvct\\bin\\armasm -o ${TARGET} ${SOURCE}'
p2959
asg345
(lp2960
g2957
aS'echo ARM Assembling(GCC) ${SOURCE}...'
p2961
aS'c:/marmalade/6.2/s3e\\gcc\\bin\\arm-none-eabi-gcc -c -o ${TARGET} ${SOURCE}'
p2962
asS'ppu'
p2963
(lp2964
S'.a'
p2965
aS'echo PPU Assembling(SNC) ${SOURCE}...'
p2966
aS'c:/marmalade/6.2/s3e\\rvct\\bin\\armasm -o ${TARGET} ${SOURCE}'
p2967
assS'.s'
p2968
g2954
sS'.vp'
p2969
(lp2970
NaS'"C:/Marmalade/6.2/s3e/python/python.exe" "c:/marmalade/6.2/modules/iwgx/tools/compile_shaders.py" ${SOURCE}'
p2971
assg484
g0
sbtp2972
.